(lp0
(dp1
a(dp2
S'a'
p3
I3129
sS'c'
p4
I5
sS'e'
p5
I11
sS'd'
p6
I12
sS'f'
p7
I4
sS'i'
p8
I3178
sS'k'
p9
I1
sS'm'
p10
I2
sS'l'
p11
I2
sS'o'
p12
I8
sS'n'
p13
I1
sS's'
p14
I935
sS't'
p15
I19
sS'w'
p16
I4
sS'v'
p17
I3
sS'x'
p18
I3
sa(dp19
S'em'
p20
I1
sS'ix'
p21
I3
sS'xi'
p22
I3
sS'do'
p23
I640
sS'ah'
p24
I48
sS'is'
p25
I1240
sS'am'
p26
I425
sS'it'
p27
I2528
sS'an'
p28
I464
sS'ii'
p29
I4
sS'as'
p30
I1436
sS'en'
p31
I1
sS'at'
p32
I1031
sS'in'
p33
I2188
sS'go'
p34
I132
sS'xv'
p35
I3
sS'if'
p36
I485
sS'ha'
p37
I2
sS'no'
p38
I742
sS'to'
p39
I5239
sS'vi'
p40
I3
sS'be'
p41
I1975
sS'we'
p42
I349
sS'de'
p43
I1
sS'ye'
p44
I7
sS'ox'
p45
I1
sS'al'
p46
I1
sS're'
p47
I2
sS'iv'
p48
I3
sS'dr'
p49
I2
sS'by'
p50
I570
sS'he'
p51
I1806
sS'me'
p52
I573
sS'on'
p53
I692
sS'ma'
p54
I12
sS'oh'
p55
I193
sS'of'
p56
I4291
sS'la'
p57
I2
sS'up'
p58
I190
sS'us'
p59
I145
sS'st'
p60
I1
sS'so'
p61
I974
sS'mr'
p62
I1153
sS'my'
p63
I728
sS'or'
p64
I494
sS'se'
p65
I1
sa(dp66
S'all'
p67
I845
sS'yes'
p68
I125
sS'yet'
p69
I109
sS'inn'
p70
I4
sS'row'
p71
I1
sS'cut'
p72
I16
sS'fit'
p73
I13
sS'mix'
p74
I4
sS'fix'
p75
I9
sS'had'
p76
I1624
sS'vex'
p77
I1
sS'him'
p78
I759
sS'hay'
p79
I1
sS'add'
p80
I11
sS'wet'
p81
I5
sS'has'
p82
I250
sS'hat'
p83
I1
sS'mis'
p84
I2
sS'his'
p85
I1145
sS'hit'
p86
I3
sS'get'
p87
I67
sS'far'
p88
I70
sS'bid'
p89
I4
sS'fat'
p90
I1
sS'hid'
p91
I1
sS'pop'
p92
I1
sS'got'
p93
I36
sS'not'
p94
I2140
sS'bit'
p95
I5
sS'son'
p96
I47
sS'day'
p97
I192
sS'nor'
p98
I64
sS'bar'
p99
I1
sS'did'
p100
I352
sS'die'
p101
I5
sS'cry'
p102
I1
sS'try'
p103
I21
sS'bad'
p104
I60
sS'she'
p105
I2340
sS'shy'
p106
I1
sS'ult'
p107
I1
sS'set'
p108
I63
sS'old'
p109
I85
sS'ten'
p110
I31
sS'tea'
p111
I27
sS'sex'
p112
I5
sS'see'
p113
I222
sS'are'
p114
I455
sS'sea'
p115
I14
sS'our'
p116
I97
sS'odd'
p117
I26
sS'arm'
p118
I16
sS'out'
p119
I212
sS'for'
p120
I1347
sS'pet'
p121
I1
sS'god'
p122
I8
sS'pew'
p123
I2
sS'ice'
p124
I1
sS'its'
p125
I122
sS'xvi'
p126
I3
sS'mud'
p127
I1
sS'pen'
p128
I1
sS'sup'
p129
I1
sS'mum'
p130
I1
sS'new'
p131
I36
sS'red'
p132
I1
sS'run'
p133
I17
sS'leg'
p134
I6
sS'rub'
p135
I1
sS'joy'
p136
I18
sS'men'
p137
I33
sS'fed'
p138
I1
sS'met'
p139
I38
sS'job'
p140
I3
sS'let'
p141
I90
sS'key'
p142
I4
sS'put'
p143
I64
sS'box'
p144
I23
sS'boy'
p145
I13
sS'ate'
p146
I2
sS'cow'
p147
I3
sS'cox'
p148
I8
sS'ill'
p149
I73
sS'bow'
p150
I4
sS'etc'
p151
I2
sS'act'
p152
I15
sS'lay'
p153
I11
sS'pre'
p154
I1
sS'own'
p155
I301
sS'owe'
p156
I2
sS'win'
p157
I1
sS'vii'
p158
I3
sS'apt'
p159
I7
sS'one'
p160
I452
sS'ask'
p161
I43
sS'wit'
p162
I11
sS'art'
p163
I2
sS'sky'
p164
I1
sS'wan'
p165
I1
sS'use'
p166
I38
sS'eye'
p167
I31
sS'her'
p168
I2469
sS'aye'
p169
I15
sS'xii'
p170
I3
sS'top'
p171
I3
sS'fro'
p172
I1
sS'due'
p173
I23
sS'few'
p174
I106
sS'too'
p175
I254
sS'way'
p176
I155
sS'wax'
p177
I1
sS'xix'
p178
I1
sS'was'
p179
I2398
sS'war'
p180
I1
sS'low'
p181
I19
sS'dry'
p182
I4
sS'buy'
p183
I1
sS'xiv'
p184
I3
sS'gay'
p185
I6
sS'hum'
p186
I1
sS'mad'
p187
I11
sS'tom'
p188
I1
sS'but'
p189
I1441
sS'don'
p190
I16
sS'ear'
p191
I5
sS'iii'
p192
I4
sS'eat'
p193
I12
sS'fly'
p194
I3
sS'bye'
p195
I12
sS'sly'
p196
I3
sS'car'
p197
I1
sS'beg'
p198
I12
sS'bed'
p199
I13
sS'air'
p200
I45
sS'nod'
p201
I1
sS'can'
p202
I284
sS'aid'
p203
I2
sS'and'
p204
I4896
sS'hue'
p205
I2
sS'ran'
p206
I9
sS'tax'
p207
I1
sS'non'
p208
I1
sS'now'
p209
I309
sS'sad'
p210
I25
sS'say'
p211
I310
sS'rid'
p212
I4
sS'ing'
p213
I1
sS'saw'
p214
I108
sS'any'
p215
I654
sS'sat'
p216
I37
sS'sir'
p217
I66
sS'par'
p218
I1
sS'end'
p219
I48
sS'sit'
p220
I38
sS'pay'
p221
I25
sS'six'
p222
I12
sS'mid'
p223
I1
sS'tis'
p224
I2
sS'how'
p225
I371
sS'hot'
p226
I11
sS'lip'
p227
I2
sS'hop'
p228
I1
sS'tie'
p229
I1
sS'you'
p230
I1980
sS'nay'
p231
I12
sS'sin'
p232
I1
sS'pan'
p233
I1
sS'led'
p234
I25
sS'mat'
p235
I1
sS'lie'
p236
I1
sS'may'
p237
I221
sS'who'
p238
I294
sS'lot'
p239
I1
sS'two'
p240
I178
sS'awe'
p241
I1
sS'law'
p242
I18
sS'why'
p243
I55
sS'tan'
p244
I1
sS'man'
p245
I235
sS'ago'
p246
I32
sS'off'
p247
I99
sS'thy'
p248
I2
sS'age'
p249
I22
sS'dog'
p250
I1
sS'mrs'
p251
I699
sS'sun'
p252
I6
sS'the'
p253
I5201
sS'egg'
p254
I3
sa(dp255
S'gown'
p256
I7
sS'lace'
p257
I6
sS'four'
p258
I30
sS'sunk'
p259
I10
sS'mild'
p260
I4
sS'mile'
p261
I11
sS'gang'
p262
I1
sS'skin'
p263
I3
sS'dish'
p264
I1
sS'mill'
p265
I11
sS'hate'
p266
I4
sS'sung'
p267
I2
sS'ware'
p268
I1
sS'send'
p269
I23
sS'lord'
p270
I6
sS'sent'
p271
I33
sS'risk'
p272
I6
sS'song'
p273
I5
sS'very'
p274
I1202
sS'void'
p275
I1
sS'rise'
p276
I5
sS'sons'
p277
I1
sS'fall'
p278
I10
sS'cook'
p279
I1
sS'word'
p280
I94
sS'vast'
p281
I6
sS'cool'
p282
I6
sS'fogs'
p283
I1
sS'tear'
p284
I4
sS'list'
p285
I2
sS'sang'
p286
I3
sS'malt'
p287
I1
sS'pork'
p288
I11
sS'says'
p289
I31
sS'sigh'
p290
I19
sS'pore'
p291
I1
sS'sign'
p292
I3
sS'past'
p293
I20
sS'fold'
p294
I1
sS'rate'
p295
I18
sS'cost'
p296
I2
sS'pour'
p297
I1
sS'pass'
p298
I32
sS'bake'
p299
I1
sS'blue'
p300
I4
sS'what'
p301
I536
sS'cast'
p302
I3
sS'xvii'
p303
I3
sS'goes'
p304
I6
sS'ever'
p305
I193
sS'bird'
p306
I1
sS'told'
p307
I78
sS'body'
p308
I193
sS'full'
p309
I46
sS'hero'
p310
I2
sS'sins'
p311
I3
sS'drew'
p312
I6
sS'mule'
p313
I1
sS'slow'
p314
I6
sS'sink'
p315
I9
sS'hers'
p316
I20
sS'sing'
p317
I4
sS'wait'
p318
I22
sS'host'
p319
I2
sS'pick'
p320
I1
sS'caro'
p321
I3
sS'love'
p322
I117
sS'limb'
p323
I1
sS'lime'
p324
I2
sS'plot'
p325
I1
sS'from'
p326
I546
sS'sake'
p327
I25
sS'arms'
p328
I2
sS'next'
p329
I63
sS'live'
p330
I17
sS'call'
p331
I42
sS'calm'
p332
I5
sS'pert'
p333
I3
sS'doom'
p334
I1
sS'tell'
p335
I77
sS'more'
p336
I467
sS'sort'
p337
I112
sS'door'
p338
I47
sS'club'
p339
I5
sS'tidy'
p340
I1
sS'heir'
p341
I3
sS'hurt'
p342
I8
sS'sore'
p343
I8
sS'warm'
p344
I30
sS'baby'
p345
I6
sS'hold'
p346
I14
sS'glad'
p347
I50
sS'must'
p348
I567
sS'town'
p349
I23
sS'none'
p350
I29
sS'wool'
p351
I1
sS'join'
p352
I23
sS'room'
p353
I117
sS'hour'
p354
I83
sS'this'
p355
I526
sS'ride'
p356
I6
sS'work'
p357
I22
sS'soul'
p358
I3
sS'worn'
p359
I3
sS'soup'
p360
I1
sS'sour'
p361
I1
sS'nine'
p362
I4
sS'thin'
p363
I6
sS'meet'
p364
I32
sS'male'
p365
I1
sS'root'
p366
I1
sS'bent'
p367
I2
sS'give'
p368
I159
sS'lock'
p369
I1
sS'rode'
p370
I3
sS'high'
p371
I19
sS'bend'
p372
I4
sS'want'
p373
I90
sS'cows'
p374
I1
sS'pink'
p375
I1
sS'lame'
p376
I2
sS'till'
p377
I102
sS'lamp'
p378
I2
sS'pure'
p379
I1
sS'gate'
p380
I4
sS'stir'
p381
I7
sS'begs'
p382
I1
sS'fare'
p383
I1
sS'lamb'
p384
I1
sS'rude'
p385
I6
sS'farm'
p386
I9
sS'spot'
p387
I7
sS'tied'
p388
I1
sS'date'
p389
I2
sS'such'
p390
I489
sS'arch'
p391
I2
sS'grow'
p392
I10
sS'wins'
p393
I1
sS'eats'
p394
I2
sS'wink'
p395
I1
sS'tall'
p396
I10
sS'wind'
p397
I5
sS'wine'
p398
I6
sS'help'
p399
I39
sS'mute'
p400
I1
sS'over'
p401
I139
sS'move'
p402
I19
sS'soon'
p403
I224
sS'held'
p404
I9
sS'pang'
p405
I2
sS'hems'
p406
I1
sS'cold'
p407
I54
sS'cole'
p408
I61
sS'pent'
p409
I1
sS'maps'
p410
I1
sS'pray'
p411
I26
sS'glee'
p412
I1
sS'late'
p413
I27
sS'maid'
p414
I11
sS'ours'
p415
I7
sS'main'
p416
I2
sS'fool'
p417
I3
sS'then'
p418
I169
sS'them'
p419
I432
sS'good'
p420
I358
sS'food'
p421
I3
sS'safe'
p422
I21
sS'earn'
p423
I2
sS'flew'
p424
I2
sS'band'
p425
I1
sS'sack'
p426
I1
sS'they'
p427
I540
sS'half'
p428
I118
sS'foot'
p429
I8
sS'hall'
p430
I8
sS'bank'
p431
I4
sS'term'
p432
I1
sS'name'
p433
I56
sS'shan'
p434
I1
sS'drop'
p435
I2
sS'mode'
p436
I1
sS'each'
p437
I46
sS'went'
p438
I46
sS'tray'
p439
I1
sS'meal'
p440
I4
sS'bone'
p441
I1
sS'mean'
p442
I59
sS'harm'
p443
I13
sS'whim'
p444
I1
sS'fish'
p445
I2
sS'hard'
p446
I12
sS'idea'
p447
I100
sS'errs'
p448
I1
sS'used'
p449
I50
sS'year'
p450
I28
sS'aids'
p451
I1
sS'girl'
p452
I47
sS'harp'
p453
I2
sS'miss'
p454
I599
sS'your'
p455
I364
sS'abdy'
p456
I1
sS'laid'
p457
I11
sS'hill'
p458
I22
sS'lain'
p459
I1
sS'shut'
p460
I9
sS'dirt'
p461
I1
sS'hang'
p462
I1
sS'free'
p463
I5
sS'base'
p464
I1
sS'evil'
p465
I33
sS'plea'
p466
I6
sS'ajar'
p467
I2
sS'knit'
p468
I1
sS'card'
p469
I9
sS'care'
p470
I51
sS'omit'
p471
I1
sS'days'
p472
I50
sS'keep'
p473
I33
sS'turn'
p474
I28
sS'loud'
p475
I5
sS'feed'
p476
I1
sS'dine'
p477
I15
sS'feel'
p478
I95
sS'rank'
p479
I9
sS'feet'
p480
I1
sS'fits'
p481
I1
sS'dint'
p482
I1
sS'done'
p483
I142
sS'long'
p484
I146
sS'ties'
p485
I1
sS'ring'
p486
I1
sS'elms'
p487
I1
sS'open'
p488
I41
sS'hood'
p489
I1
sS'size'
p490
I12
sS'airs'
p491
I3
sS'mama'
p492
I3
sS'airy'
p493
I3
sS'john'
p494
I90
sS'boil'
p495
I1
sS'eyes'
p496
I51
sS'pomp'
p497
I2
sS'that'
p498
I1806
sS'park'
p499
I2
sS'took'
p500
I47
sS'alas'
p501
I4
sS'july'
p502
I3
sS'copy'
p503
I1
sS'than'
p504
I415
sS'jump'
p505
I2
sS'kind'
p506
I82
sS'grew'
p507
I10
sS'tree'
p508
I4
sS'grey'
p509
I1
sS'idle'
p510
I4
sS'iron'
p511
I2
sS'were'
p512
I600
sS'oath'
p513
I1
sS'sees'
p514
I3
sS'mind'
p515
I128
sS'mine'
p516
I26
sS'slap'
p517
I1
sS'gala'
p518
I1
sS'have'
p519
I1320
sS'need'
p520
I42
sS'seen'
p521
I73
sS'seem'
p522
I37
sS'seek'
p523
I6
sS'sell'
p524
I1
sS'self'
p525
I23
sS'cope'
p526
I1
sS'able'
p527
I72
sS'snow'
p528
I16
sS'note'
p529
I23
sS'also'
p530
I24
sS'take'
p531
I119
sS'awes'
p532
I1
sS'even'
p533
I132
sS'play'
p534
I18
sS'sure'
p535
I204
sS'pain'
p536
I34
sS'eggs'
p537
I2
sS'knew'
p538
I88
sS'paid'
p539
I19
sS'most'
p540
I248
sS'plan'
p541
I26
sS'pair'
p542
I7
sS'knee'
p543
I1
sS'glow'
p544
I6
sS'lawn'
p545
I4
sS'bred'
p546
I5
sS'flow'
p547
I6
sS'sale'
p548
I2
sS'face'
p549
I32
sS'part'
p550
I70
sS'aunt'
p551
I57
sS'talk'
p552
I60
sS'salt'
p553
I1
sS'fact'
p554
I24
sS'shop'
p555
I8
sS'kite'
p556
I1
sS'gold'
p557
I1
sS'show'
p558
I2
sS'fond'
p559
I39
sS'dupe'
p560
I1
sS'shod'
p561
I1
sS'fear'
p562
I11
sS'fine'
p563
I42
sS'find'
p564
I75
sS'envy'
p565
I6
sS'busy'
p566
I19
sS'with'
p567
I1217
sS'ruin'
p568
I1
sS'only'
p569
I341
sS'wood'
p570
I2
sS'rich'
p571
I14
sS'mend'
p572
I1
sS'robe'
p573
I1
sS'rice'
p574
I1
sS'hope'
p575
I143
sS'king'
p576
I2
sS'beat'
p577
I3
sS'beau'
p578
I1
sS'stop'
p579
I15
sS'bear'
p580
I52
sS'beam'
p581
I2
sS'ones'
p582
I4
sS'runs'
p583
I2
sS'amid'
p584
I1
sS'rung'
p585
I1
sS'view'
p586
I27
sS'gout'
p587
I1
sS'bars'
p588
I1
sS'fair'
p589
I30
sS'seas'
p590
I3
sS'lazy'
p591
I1
sS'seat'
p592
I11
sS'bare'
p593
I2
sS'fail'
p594
I5
sS'best'
p595
I85
sS'said'
p596
I484
sS'ways'
p597
I16
sS'away'
p598
I138
sS'tend'
p599
I1
sS'loth'
p600
I1
sS'tens'
p601
I1
sS'ends'
p602
I1
sS'sold'
p603
I3
sS'sole'
p604
I3
sS'weak'
p605
I6
sS'york'
p606
I1
sS'here'
p607
I154
sS'news'
p608
I36
sS'debt'
p609
I1
sS'come'
p610
I172
sS'pity'
p611
I26
sS'both'
p612
I85
sS'last'
p613
I119
sS'thou'
p614
I1
sS'joke'
p615
I6
sS'tour'
p616
I2
sS'puff'
p617
I1
sS'bond'
p618
I3
sS'wear'
p619
I3
sS'duty'
p620
I21
sS'vent'
p621
I1
sS'tone'
p622
I24
sS'bell'
p623
I3
sS'wall'
p624
I2
sS'vain'
p625
I25
sS'walk'
p626
I56
sS'path'
p627
I4
sS'rave'
p628
I1
sS'quit'
p629
I4
sS'asks'
p630
I3
sS'west'
p631
I1
sS'damp'
p632
I6
sS'been'
p633
I759
sS'mark'
p634
I4
sS'whom'
p635
I73
sS'beer'
p636
I4
sS'much'
p637
I486
sS'beet'
p638
I1
sS'acre'
p639
I1
sS'poet'
p640
I2
sS'dews'
p641
I1
sS'firm'
p642
I4
sS'life'
p643
I80
sS'fire'
p644
I16
sS'ages'
p645
I2
sS'else'
p646
I80
sS'doth'
p647
I1
sS'coxe'
p648
I2
sS'case'
p649
I31
sS'east'
p650
I1
sS'look'
p651
I121
sS'will'
p652
I570
sS'pace'
p653
I6
sS'near'
p654
I46
sS'xiii'
p655
I3
sS'neat'
p656
I6
sS'viii'
p657
I3
sS'many'
p658
I138
sS'wild'
p659
I3
sS'pack'
p660
I1
sS'cart'
p661
I1
sS'owed'
p662
I5
sS'thus'
p663
I12
sS'bias'
p664
I1
sS'owes'
p665
I3
sS'fame'
p666
I4
sS'make'
p667
I152
sS'same'
p668
I102
sS'bows'
p669
I1
sS'inch'
p670
I3
sS'gets'
p671
I4
sS'deem'
p672
I2
sS'week'
p673
I29
sS'ball'
p674
I31
sS'fuss'
p675
I1
sS'dusk'
p676
I1
sS'doat'
p677
I1
sS'upon'
p678
I159
sS'rain'
p679
I22
sS'hand'
p680
I53
sS'baly'
p681
I1
sS'dust'
p682
I1
sS'tune'
p683
I1
sS'hows'
p684
I1
sS'kept'
p685
I22
sS'well'
p686
I401
sS'sets'
p687
I1
sS'rout'
p688
I1
sS'left'
p689
I68
sS'lest'
p690
I2
sS'just'
p691
I165
sS'less'
p692
I68
sS'when'
p693
I363
sS'rest'
p694
I50
sS'keen'
p695
I1
sS'blow'
p696
I3
sS'blot'
p697
I1
sS'hint'
p698
I19
sS'rose'
p699
I8
sS'ease'
p700
I20
sS'lets'
p701
I1
sS'easy'
p702
I28
sS'hind'
p703
I2
sS'save'
p704
I6
sS'gave'
p705
I54
sS'real'
p706
I42
sS'fate'
p707
I6
sS'read'
p708
I52
sS'sums'
p709
I1
sS'caps'
p710
I2
sS'dark'
p711
I7
sS'game'
p712
I3
sS'five'
p713
I42
sS'know'
p714
I337
sS'desk'
p715
I2
sS'lady'
p716
I73
sS'pies'
p717
I1
sS'dare'
p718
I59
sS'meat'
p719
I2
sS'loss'
p720
I23
sS'emma'
p721
I864
sS'like'
p722
I200
sS'lost'
p723
I21
sS'zeal'
p724
I4
sS'sofa'
p725
I5
sS'lose'
p726
I19
sS'hung'
p727
I3
sS'tart'
p728
I2
sS'soft'
p729
I10
sS'page'
p730
I2
sS'deal'
p731
I92
sS'urge'
p732
I6
sS'some'
p733
I262
sS'back'
p734
I67
sS'dead'
p735
I2
sS'hush'
p736
I4
sS'shew'
p737
I28
sS'lips'
p738
I6
sS'dear'
p739
I241
sS'home'
p740
I130
sS'bore'
p741
I7
sS'pale'
p742
I4
sS'lead'
p743
I12
sS'doer'
p744
I1
sS'does'
p745
I130
sS'anne'
p746
I3
sS'anna'
p747
I1
sS'mare'
p748
I2
sS'june'
p749
I7
sS'corn'
p750
I1
sS'burn'
p751
I3
sS'step'
p752
I11
sS'post'
p753
I13
sS'wept'
p754
I1
sS'wore'
p755
I2
sS'side'
p756
I71
sS'luck'
p757
I11
sS'sept'
p758
I1
sS'road'
p759
I19
sS'rued'
p760
I1
sS'pays'
p761
I4
sS'into'
p762
I163
sS'bath'
p763
I20
sS'down'
p764
I70
sS'lies'
p765
I2
sS'loin'
p766
I3
sS'lieu'
p767
I1
sS'wrap'
p768
I1
sS'mere'
p769
I16
sS'rows'
p770
I1
sS'fast'
p771
I13
sS'gaze'
p772
I3
sS'suit'
p773
I13
sS'jane'
p774
I300
sS'head'
p775
I40
sS'form'
p776
I19
sS'duly'
p777
I1
sS'deaf'
p778
I4
sS'heal'
p779
I2
sS'deny'
p780
I7
sS'fore'
p781
I1
sS'ford'
p782
I16
sS'boys'
p783
I13
sS'heat'
p784
I8
sS'hear'
p785
I100
sS'gain'
p786
I4
sS'heap'
p787
I1
sS'thaw'
p788
I1
sS'line'
p789
I16
sS'true'
p790
I66
sS'dull'
p791
I9
sS'hair'
p792
I14
sS'rush'
p793
I2
sS'made'
p794
I199
sS'wise'
p795
I8
sS'born'
p796
I6
sS'wish'
p797
I135
sS'bids'
p798
I1
sS'rack'
p799
I1
sS'cake'
p800
I8
sS'gone'
p801
I80
sS'camp'
p802
I1
sS'curs'
p803
I1
sS'deep'
p804
I14
sS'cure'
p805
I15
sS'dyed'
p806
I1
sS'chat'
p807
I5
sS'deed'
p808
I1
sS'fill'
p809
I2
sS'boot'
p810
I5
sS'book'
p811
I11
sS'sick'
p812
I10
sS'mock'
p813
I1
sS'nice'
p814
I10
sS'poor'
p815
I136
sS'draw'
p816
I10
sS'dies'
p817
I2
sS'felt'
p818
I113
sS'papa'
p819
I33
sS'poem'
p820
I2
sS'diet'
p821
I1
sS'stay'
p822
I44
sS'fell'
p823
I10
sS'nods'
p824
I1
sS'lent'
p825
I2
sS'died'
p826
I4
sS'lane'
p827
I11
sS'land'
p828
I2
sS'wife'
p829
I68
sS'rule'
p830
I10
sS'beds'
p831
I5
sS'came'
p832
I119
sS'time'
p833
I279
sS'push'
p834
I1
sS'nash'
p835
I13
sS'tete'
p836
I8
sS'sash'
p837
I1
sS'once'
p838
I83
sa(dp839
S'essay'
p840
I1
sS'coach'
p841
I1
sS'dance'
p842
I22
sS'saves'
p843
I1
sS'souls'
p844
I1
sS'month'
p845
I13
sS'leads'
p846
I2
sS'pique'
p847
I1
sS'windy'
p848
I2
sS'woods'
p849
I1
sS'sleep'
p850
I2
sS'amiss'
p851
I6
sS'chair'
p852
I11
sS'saved'
p853
I6
sS'cases'
p854
I2
sS'whose'
p855
I39
sS'hurry'
p856
I24
sS'scold'
p857
I1
sS'young'
p858
I192
sS'suits'
p859
I3
sS'voted'
p860
I1
sS'under'
p861
I63
sS'smile'
p862
I44
sS'sorry'
p863
I61
sS'pride'
p864
I18
sS'worth'
p865
I30
sS'abode'
p866
I1
sS'brown'
p867
I1
sS'woman'
p868
I131
sS'worse'
p869
I30
sS'kitty'
p870
I3
sS'spoon'
p871
I1
sS'mania'
p872
I1
sS'every'
p873
I435
sS'stays'
p874
I1
sS'sleek'
p875
I1
sS'exact'
p876
I4
sS'gipsy'
p877
I2
sS'prize'
p878
I4
sS'humph'
p879
I4
sS'forth'
p880
I5
sS'marry'
p881
I63
sS'shock'
p882
I7
sS'fewer'
p883
I4
sS'leave'
p884
I58
sS'knife'
p885
I1
sS'harry'
p886
I1
sS'small'
p887
I31
sS'whist'
p888
I4
sS'freed'
p889
I2
sS'round'
p890
I39
sS'enjoy'
p891
I9
sS'upper'
p892
I3
sS'force'
p893
I6
sS'speck'
p894
I1
sS'fence'
p895
I1
sS'tired'
p896
I19
sS'awake'
p897
I2
sS'frost'
p898
I1
sS'pulse'
p899
I2
sS'tires'
p900
I1
sS'talks'
p901
I4
sS'imply'
p902
I2
sS'utter'
p903
I4
sS'elton'
p904
I385
sS'stood'
p905
I15
sS'clock'
p906
I9
sS'brief'
p907
I2
sS'stoop'
p908
I2
sS'above'
p909
I12
sS'reply'
p910
I14
sS'nurse'
p911
I2
sS'chose'
p912
I9
sS'clerk'
p913
I1
sS'never'
p914
I358
sS'hours'
p915
I25
sS'yards'
p916
I6
sS'trunk'
p917
I2
sS'alone'
p918
I27
sS'safer'
p919
I5
sS'great'
p920
I264
sS'boast'
p921
I2
sS'dusty'
p922
I1
sS'shift'
p923
I2
sS'study'
p924
I5
sS'adopt'
p925
I4
sS'trial'
p926
I4
sS'bangs'
p927
I1
sS'smoke'
p928
I1
sS'shook'
p929
I8
sS'makes'
p930
I19
sS'named'
p931
I9
sS'elect'
p932
I1
sS'apple'
p933
I8
sS'stray'
p934
I2
sS'claim'
p935
I12
sS'clara'
p936
I1
sS'texts'
p937
I1
sS'moral'
p938
I1
sS'names'
p939
I3
sS'welch'
p940
I2
sS'apply'
p941
I2
sS'total'
p942
I3
sS'cloud'
p943
I1
sS'rises'
p944
I1
sS'spoke'
p945
I42
sS'would'
p946
I820
sS'prove'
p947
I11
sS'angry'
p948
I19
sS'faint'
p949
I2
sS'visit'
p950
I86
sS'raved'
p951
I1
sS'papas'
p952
I1
sS'doubt'
p953
I98
sS'music'
p954
I24
sS'taken'
p955
I58
sS'noisy'
p956
I2
sS'minor'
p957
I1
sS'knows'
p958
I30
sS'lungs'
p959
I1
sS'altar'
p960
I1
sS'finis'
p961
I1
sS'marks'
p962
I2
sS'stone'
p963
I2
sS'reign'
p964
I1
sS'aware'
p965
I26
sS'grief'
p966
I5
sS'glass'
p967
I2
sS'train'
p968
I4
sS'broke'
p969
I1
sS'known'
p970
I60
sS'cured'
p971
I3
sS'midst'
p972
I7
sS'given'
p973
I77
sS'duped'
p974
I1
sS'women'
p975
I20
sS'balls'
p976
I5
sS'lapse'
p977
I1
sS'privy'
p978
I2
sS'learn'
p979
I5
sS'elbow'
p980
I1
sS'drops'
p981
I1
sS'dropt'
p982
I4
sS'fetch'
p983
I7
sS'proof'
p984
I23
sS'defer'
p985
I5
sS'shark'
p986
I3
sS'hears'
p987
I4
sS'sense'
p988
I56
sS'share'
p989
I15
sS'topic'
p990
I3
sS'heard'
p991
I120
sS'arise'
p992
I7
sS'sharp'
p993
I2
sS'story'
p994
I14
sS'dress'
p995
I8
sS'occur'
p996
I10
sS'needs'
p997
I2
sS'court'
p998
I10
sS'agony'
p999
I2
sS'holds'
p1000
I5
sS'colds'
p1001
I4
sS'owner'
p1002
I1
sS'delay'
p1003
I19
sS'panic'
p1004
I2
sS'pales'
p1005
I1
sS'stock'
p1006
I3
sS'cavil'
p1007
I1
sS'badly'
p1008
I1
sS'fever'
p1009
I6
sS'plans'
p1010
I9
sS'after'
p1011
I161
sS'timed'
p1012
I1
sS'wrong'
p1013
I39
sS'wrist'
p1014
I1
sS'blood'
p1015
I5
sS'coast'
p1016
I1
sS'bloom'
p1017
I4
sS'bleak'
p1018
I1
sS'short'
p1019
I70
sS'third'
p1020
I5
sS'hasty'
p1021
I5
sS'light'
p1022
I13
sS'amuse'
p1023
I8
sS'lines'
p1024
I18
sS'arrow'
p1025
I1
sS'linen'
p1026
I2
sS'chief'
p1027
I3
sS'green'
p1028
I1
sS'dread'
p1029
I9
sS'shade'
p1030
I7
sS'enter'
p1031
I8
sS'aloud'
p1032
I8
sS'worst'
p1033
I19
sS'lined'
p1034
I1
sS'dream'
p1035
I11
sS'order'
p1036
I14
sS'shoes'
p1037
I4
sS'using'
p1038
I1
sS'years'
p1039
I57
sS'brain'
p1040
I7
sS'paper'
p1041
I13
sS'looks'
p1042
I29
sS'shake'
p1043
I9
sS'still'
p1044
I115
sS'saucy'
p1045
I3
sS'write'
p1046
I24
sS'style'
p1047
I27
sS'group'
p1048
I2
sS'thank'
p1049
I40
sS'curls'
p1050
I1
sS'bosom'
p1051
I1
sS'abbey'
p1052
I31
sS'forms'
p1053
I1
sS'weeks'
p1054
I21
sS'might'
p1055
I326
sS'alter'
p1056
I4
sS'pangs'
p1057
I1
sS'views'
p1058
I17
sS'break'
p1059
I13
sS'owned'
p1060
I4
sS'stout'
p1061
I2
sS'hands'
p1062
I23
sS'front'
p1063
I7
sS'limes'
p1064
I1
sS'bread'
p1065
I3
sS'gloom'
p1066
I2
sS'james'
p1067
I19
sS'level'
p1068
I4
sS'bless'
p1069
I5
sS'token'
p1070
I1
sS'truth'
p1071
I37
sS'turns'
p1072
I9
sS'pools'
p1073
I1
sS'found'
p1074
I92
sS'fairy'
p1075
I3
sS'notes'
p1076
I1
sS'mercy'
p1077
I3
sS'heavy'
p1078
I9
sS'bends'
p1079
I2
sS'meets'
p1080
I1
sS'doing'
p1081
I45
sS'house'
p1082
I95
sS'goose'
p1083
I2
sS'sober'
p1084
I3
sS'fires'
p1085
I2
sS'books'
p1086
I6
sS'shewn'
p1087
I10
sS'begun'
p1088
I12
sS'allay'
p1089
I1
sS'event'
p1090
I24
sS'borne'
p1091
I11
sS'large'
p1092
I35
sS'dears'
p1093
I2
sS'perry'
p1094
I80
sS'lowly'
p1095
I1
sS'space'
p1096
I4
sS'tried'
p1097
I26
sS'since'
p1098
I65
sS'forty'
p1099
I9
sS'abide'
p1100
I1
sS'adapt'
p1101
I2
sS'flame'
p1102
I1
sS'newly'
p1103
I1
sS'cause'
p1104
I16
sS'shows'
p1105
I1
sS'frank'
p1106
I208
sS'dealt'
p1107
I1
sS'horse'
p1108
I9
sS'quite'
p1109
I282
sS'quick'
p1110
I23
sS'tempt'
p1111
I4
sS'quits'
p1112
I1
sS'teach'
p1113
I4
sS'cough'
p1114
I2
sS'river'
p1115
I3
sS'bates'
p1116
I148
sS'could'
p1117
I837
sS'times'
p1118
I28
sS'thing'
p1119
I398
sS'flown'
p1120
I2
sS'place'
p1121
I93
sS'hence'
p1122
I6
sS'blush'
p1123
I22
sS'think'
p1124
I383
sS'south'
p1125
I8
sS'first'
p1126
I209
sS'blind'
p1127
I13
sS'henry'
p1128
I23
sS'blown'
p1129
I1
sS'scene'
p1130
I5
sS'fancy'
p1131
I38
sS'elder'
p1132
I4
sS'awoke'
p1133
I1
sS'blank'
p1134
I4
sS'carry'
p1135
I8
sS'thick'
p1136
I5
sS'drove'
p1137
I3
sS'maple'
p1138
I31
sS'sheep'
p1139
I1
sS'dwelt'
p1140
I4
sS'guess'
p1141
I25
sS'sadly'
p1142
I3
sS'guest'
p1143
I2
sS'flock'
p1144
I1
sS'stuck'
p1145
I1
sS'bears'
p1146
I2
sS'burst'
p1147
I13
sS'girls'
p1148
I13
sS'least'
p1149
I85
sS'their'
p1150
I306
sS'pains'
p1151
I10
sS'dwell'
p1152
I4
sS'white'
p1153
I7
sS'final'
p1154
I1
sS'store'
p1155
I2
sS'gives'
p1156
I17
sS'bowed'
p1157
I3
sS'storm'
p1158
I3
sS'shawl'
p1159
I5
sS'serve'
p1160
I3
sS'lists'
p1161
I2
sS'vouch'
p1162
I1
sS'drain'
p1163
I1
sS'grace'
p1164
I8
sS'loved'
p1165
I27
sS'spurn'
p1166
I1
sS'tooth'
p1167
I1
sS'rival'
p1168
I1
sS'folly'
p1169
I12
sS'vocal'
p1170
I1
sS'youth'
p1171
I11
sS'bride'
p1172
I13
sS'silly'
p1173
I12
sS'risks'
p1174
I2
sS'loves'
p1175
I9
sS'lover'
p1176
I7
sS'cards'
p1177
I5
sS'mirth'
p1178
I1
sS'stale'
p1179
I1
sS'prone'
p1180
I1
sS'steep'
p1181
I1
sS'drunk'
p1182
I1
sS'false'
p1183
I3
sS'angel'
p1184
I5
sS'exert'
p1185
I5
sS'craig'
p1186
I1
sS'alike'
p1187
I7
sS'sheet'
p1188
I1
sS'anger'
p1189
I7
sS'relic'
p1190
I1
sS'tells'
p1191
I11
sS'dozen'
p1192
I4
sS'clung'
p1193
I1
sS'issue'
p1194
I2
sS'built'
p1195
I3
sS'hymen'
p1196
I1
sS'sposo'
p1197
I3
sS'ideas'
p1198
I16
sS'niece'
p1199
I21
sS'doors'
p1200
I12
sS'brace'
p1201
I1
sS'begin'
p1202
I31
sS'added'
p1203
I37
sS'allow'
p1204
I47
sS'shall'
p1205
I217
sS'price'
p1206
I2
sS'reach'
p1207
I7
sS'falls'
p1208
I1
sS'alloy'
p1209
I3
sS'exult'
p1210
I1
sS'curse'
p1211
I1
sS'mouth'
p1212
I5
sS'eaten'
p1213
I3
sS'plays'
p1214
I4
sS'class'
p1215
I5
sS'grave'
p1216
I8
sS'avail'
p1217
I2
sS'seize'
p1218
I2
sS'grove'
p1219
I31
sS'clear'
p1220
I12
sS'later'
p1221
I6
sS'drive'
p1222
I12
sS'spend'
p1223
I18
sS'hints'
p1224
I6
sS'clean'
p1225
I1
sS'notch'
p1226
I1
sS'slope'
p1227
I1
sS'affix'
p1228
I1
sS'cheap'
p1229
I2
sS'merit'
p1230
I14
sS'fifty'
p1231
I3
sS'undue'
p1232
I1
sS'bring'
p1233
I38
sS'earth'
p1234
I5
sS'rough'
p1235
I3
sS'pause'
p1236
I11
sS'wrapt'
p1237
I3
sS'spite'
p1238
I24
sS'cloak'
p1239
I1
sS'staid'
p1240
I8
sS'tears'
p1241
I9
sS'going'
p1242
I120
sS'black'
p1243
I5
sS'stain'
p1244
I2
sS'local'
p1245
I3
sS'plump'
p1246
I1
sS'meant'
p1247
I43
sS'waltz'
p1248
I1
sS'gains'
p1249
I1
sS'means'
p1250
I48
sS'watch'
p1251
I10
sS'lucky'
p1252
I10
sS'trees'
p1253
I4
sS'truly'
p1254
I12
sS'joint'
p1255
I3
sS'feels'
p1256
I10
sS'words'
p1257
I49
sS'boils'
p1258
I1
sS'hedge'
p1259
I2
sS'trade'
p1260
I7
sS'hired'
p1261
I1
sS'jokes'
p1262
I1
sS'prime'
p1263
I1
sS'enemy'
p1264
I2
sS'ended'
p1265
I8
sS'coles'
p1266
I17
sS'yield'
p1267
I4
sS'patch'
p1268
I1
sS'twice'
p1269
I6
sS'miles'
p1270
I17
sS'baits'
p1271
I1
sS'bella'
p1272
I3
sS'fixed'
p1273
I20
sS'where'
p1274
I87
sS'rivet'
p1275
I7
sS'wrote'
p1276
I19
sS'widow'
p1277
I3
sS'bulky'
p1278
I1
sS'madam'
p1279
I13
sS'cramp'
p1280
I1
sS'swept'
p1281
I2
sS'habit'
p1282
I14
sS'frame'
p1283
I2
sS'pitch'
p1284
I2
sS'facts'
p1285
I1
sS'unfit'
p1286
I4
sS'close'
p1287
I18
sS'sport'
p1288
I2
sS'seems'
p1289
I24
sS'fails'
p1290
I1
sS'giver'
p1291
I1
sS'draws'
p1292
I3
sS'guilt'
p1293
I3
sS'coxes'
p1294
I5
sS'satin'
p1295
I1
sS'below'
p1296
I4
sS'brunt'
p1297
I1
sS'state'
p1298
I56
sS'score'
p1299
I2
sS'drawn'
p1300
I15
sS'sorts'
p1301
I1
sS'fight'
p1302
I1
sS'terms'
p1303
I9
sS'weary'
p1304
I1
sS'blame'
p1305
I6
sS'rapid'
p1306
I3
sS'spare'
p1307
I12
sS'merry'
p1308
I2
sS'hurts'
p1309
I1
sS'motto'
p1310
I1
sS'blunt'
p1311
I1
sS'water'
p1312
I8
sS'fried'
p1313
I2
sS'cakes'
p1314
I1
sS'fault'
p1315
I20
sS'equal'
p1316
I57
sS'minds'
p1317
I4
sS'april'
p1318
I3
sS'admit'
p1319
I10
sS'games'
p1320
I1
sS'dated'
p1321
I1
sS'faces'
p1322
I3
sS'vault'
p1323
I1
sS'whole'
p1324
I76
sS'asked'
p1325
I38
sS'comes'
p1326
I24
sS'patty'
p1327
I12
sS'among'
p1328
I51
sS'liked'
p1329
I16
sS'hetty'
p1330
I2
sS'spoil'
p1331
I1
sS'point'
p1332
I51
sS'sweet'
p1333
I22
sS'acted'
p1334
I4
sS'sweep'
p1335
I5
sS'nicer'
p1336
I1
sS'likes'
p1337
I5
sS'laugh'
p1338
I16
sS'table'
p1339
I27
sS'trust'
p1340
I8
sS'along'
p1341
I4
sS'speak'
p1342
I99
sS'devil'
p1343
I1
sS'raise'
p1344
I11
sS'recur'
p1345
I3
sS'cares'
p1346
I8
sS'union'
p1347
I4
sS'tarts'
p1348
I1
sS'three'
p1349
I72
sS'cared'
p1350
I11
sS'lieut'
p1351
I1
sS'drank'
p1352
I2
sS'treat'
p1353
I2
sS'basin'
p1354
I4
sS'waste'
p1355
I2
sS'empty'
p1356
I1
sS'threw'
p1357
I2
sS'wants'
p1358
I11
sS'lived'
p1359
I25
sS'packs'
p1360
I1
sS'drugs'
p1361
I1
sS'route'
p1362
I1
sS'finds'
p1363
I1
sS'lives'
p1364
I7
sS'child'
p1365
I38
sS'catch'
p1366
I14
sS'chili'
p1367
I1
sS'those'
p1368
I95
sS'sound'
p1369
I12
sS'homes'
p1370
I3
sS'ahead'
p1371
I1
sS'these'
p1372
I66
sS'plain'
p1373
I23
sS'mount'
p1374
I1
sS'value'
p1375
I15
sS'trick'
p1376
I5
sS'while'
p1377
I133
sS'match'
p1378
I32
sS'error'
p1379
I8
sS'shops'
p1380
I1
sS'voice'
p1381
I47
sS'charm'
p1382
I10
sS'guide'
p1383
I2
sS'seven'
p1384
I8
sS'broth'
p1385
I1
sS'purse'
p1386
I3
sS'sting'
p1387
I1
sS'quiet'
p1388
I25
sS'shame'
p1389
I9
sS'reads'
p1390
I2
sS'ready'
p1391
I66
sS'serle'
p1392
I3
sS'worry'
p1393
I1
sS'frown'
p1394
I2
sS'grown'
p1395
I9
sS'aches'
p1396
I1
sS'harsh'
p1397
I1
sS'grant'
p1398
I3
sS'maids'
p1399
I1
sS'began'
p1400
I64
sS'fling'
p1401
I1
sS'wound'
p1402
I3
sS'cross'
p1403
I10
sS'unite'
p1404
I3
sS'hazle'
p1405
I3
sS'fatal'
p1406
I1
sS'parts'
p1407
I2
sS'grand'
p1408
I5
sS'party'
p1409
I96
sS'grows'
p1410
I2
sS'noble'
p1411
I5
sS'slave'
p1412
I4
sS'swell'
p1413
I3
sS'drink'
p1414
I3
sS'alert'
p1415
I3
sS'fruit'
p1416
I4
sS'arose'
p1417
I4
sS'pedal'
p1418
I1
sS'knack'
p1419
I1
sS'timid'
p1420
I1
sS'vowed'
p1421
I1
sS'lower'
p1422
I5
sS'otway'
p1423
I5
sS'modes'
p1424
I2
sS'older'
p1425
I8
sS'cheek'
p1426
I2
sS'spent'
p1427
I21
sS'dared'
p1428
I10
sS'cheer'
p1429
I4
sS'quest'
p1430
I2
sS'dares'
p1431
I1
sS'model'
p1432
I4
sS'yours'
p1433
I5
sS'veils'
p1434
I1
sS'usual'
p1435
I51
sS'gates'
p1436
I5
sS'stake'
p1437
I2
sS'cried'
p1438
I81
sS'flesh'
p1439
I2
sS'being'
p1440
I358
sS'money'
p1441
I10
sS'flies'
p1442
I2
sS'ninth'
p1443
I2
sS'aside'
p1444
I4
sS'press'
p1445
I3
sS'shape'
p1446
I5
sS'cease'
p1447
I7
sS'rooms'
p1448
I15
sS'human'
p1449
I11
sS'seats'
p1450
I2
sS'touch'
p1451
I12
sS'skill'
p1452
I6
sS'speed'
p1453
I3
sS'death'
p1454
I10
sS'hated'
p1455
I1
sS'queen'
p1456
I1
sS'vexed'
p1457
I4
sS'smith'
p1458
I89
sS'bench'
p1459
I1
sS'eager'
p1460
I19
sS'verse'
p1461
I1
sS'dryly'
p1462
I2
sS'dixon'
p1463
I44
sS'usage'
p1464
I2
sS'ought'
p1465
I95
sS'build'
p1466
I1
sS'march'
p1467
I1
sS'which'
p1468
I556
sS'ample'
p1469
I6
sS'acute'
p1470
I2
sS'rules'
p1471
I3
sS'wives'
p1472
I4
sS'early'
p1473
I41
sS'chuse'
p1474
I24
sS'birth'
p1475
I8
sS'wiser'
p1476
I4
sS'judge'
p1477
I26
sS'world'
p1478
I81
sS'amply'
p1479
I2
sS'apart'
p1480
I3
sS'ponds'
p1481
I2
sS'sails'
p1482
I1
sS'hardy'
p1483
I1
sS'rides'
p1484
I1
sS'loser'
p1485
I1
sS'heart'
p1486
I66
sS'stept'
p1487
I3
sS'steps'
p1488
I7
sS'night'
p1489
I41
sS'augur'
p1490
I2
sS'works'
p1491
I1
sS'xviii'
p1492
I3
sS'aimed'
p1493
I2
sS'slept'
p1494
I1
sS'right'
p1495
I92
sS'often'
p1496
I91
sS'crowd'
p1497
I8
sS'sends'
p1498
I3
sS'knock'
p1499
I1
sS'crown'
p1500
I26
sS'aired'
p1501
I2
sS'alive'
p1502
I3
sS'sighs'
p1503
I1
sS'usher'
p1504
I1
sS'sight'
p1505
I26
sS'kings'
p1506
I3
sS'eclat'
p1507
I1
sS'creep'
p1508
I1
sS'olive'
p1509
I1
sS'sized'
p1510
I4
sS'slice'
p1511
I3
sS'gruel'
p1512
I9
sS'stopt'
p1513
I9
sS'avoid'
p1514
I13
sS'legal'
p1515
I1
sS'witty'
p1516
I2
sS'carte'
p1517
I1
sS'refer'
p1518
I2
sS'prose'
p1519
I3
sS'noise'
p1520
I5
sS'wheat'
p1521
I1
sS'roast'
p1522
I4
sS'power'
p1523
I41
sS'truer'
p1524
I3
sS'lasts'
p1525
I2
sS'sixty'
p1526
I1
sS'throw'
p1527
I9
sS'takes'
p1528
I8
sS'shine'
p1529
I1
sS'faith'
p1530
I5
sS'about'
p1531
I249
sS'basis'
p1532
I2
sS'urged'
p1533
I2
sS'range'
p1534
I2
sS'dined'
p1535
I2
sS'stand'
p1536
I21
sS'waded'
p1537
I1
sS'mixed'
p1538
I5
sS'eight'
p1539
I7
sS'vicar'
p1540
I3
sS'lands'
p1541
I1
sS'civil'
p1542
I13
sS'image'
p1543
I1
sS'surry'
p1544
I9
sS'bound'
p1545
I1
sS'guard'
p1546
I5
sS'gaily'
p1547
I1
sS'stare'
p1548
I1
sS'whims'
p1549
I4
sS'waits'
p1550
I1
sS'there'
p1551
I549
sS'pages'
p1552
I2
sS'fully'
p1553
I16
sS'start'
p1554
I5
sS'stars'
p1555
I1
sS'shews'
p1556
I3
sS'opens'
p1557
I1
sS'happy'
p1558
I125
sS'north'
p1559
I2
sS'offer'
p1560
I19
sS'ditch'
p1561
I1
sS'amity'
p1562
I2
sS'snows'
p1563
I1
sS'hoped'
p1564
I43
sS'cloth'
p1565
I1
sS'uncle'
p1566
I23
sS'hopes'
p1567
I21
sS'rouse'
p1568
I2
sS'brick'
p1569
I1
sS'count'
p1570
I1
sS'fraud'
p1571
I1
sS'glory'
p1572
I2
sS'fills'
p1573
I1
sS'lords'
p1574
I2
sS'ranks'
p1575
I1
sS'cruel'
p1576
I4
sS'owing'
p1577
I3
sS'dirty'
p1578
I6
sS'tones'
p1579
I1
sS'ennui'
p1580
I1
sS'piece'
p1581
I13
sS'damps'
p1582
I1
sS'agree'
p1583
I15
sS'mails'
p1584
I1
sS'irish'
p1585
I4
sS'proud'
p1586
I8
sS'freak'
p1587
I1
sS'taste'
p1588
I35
sS'moved'
p1589
I7
sS'alarm'
p1590
I17
sS'exist'
p1591
I2
sS'walks'
p1592
I4
sS'moves'
p1593
I2
sS'check'
p1594
I5
sS'cream'
p1595
I1
sS'again'
p1596
I219
sS'dying'
p1597
I1
sS'floor'
p1598
I2
sS'evils'
p1599
I10
sS'peace'
p1600
I12
sS'fears'
p1601
I14
sS'field'
p1602
I2
sS'other'
p1603
I221
sS'fools'
p1604
I2
sS'puppy'
p1605
I2
sS'smell'
p1606
I1
sS'brisk'
p1607
I1
sS'gross'
p1608
I1
sS'avert'
p1609
I1
sS'gifts'
p1610
I1
sS'scale'
p1611
I2
sS'meals'
p1612
I2
sS'calls'
p1613
I5
sS'sacks'
p1614
I1
sS'baker'
p1615
I1
sS'curve'
p1616
I1
sS'daily'
p1617
I10
sS'mimic'
p1618
I1
sS'drown'
p1619
I1
sS'pupil'
p1620
I1
sS'broad'
p1621
I7
sS'fresh'
p1622
I14
sS'baked'
p1623
I9
sS'abhor'
p1624
I1
sS'songs'
p1625
I1
sa(dp1626
S'genlis'
p1627
I1
sS'forget'
p1628
I28
sS'pardon'
p1629
I9
sS'affair'
p1630
I6
sS'sashed'
p1631
I2
sS'washed'
p1632
I1
sS'graham'
p1633
I1
sS'retain'
p1634
I1
sS'eldest'
p1635
I8
sS'yellow'
p1636
I3
sS'soften'
p1637
I1
sS'ceased'
p1638
I6
sS'softer'
p1639
I3
sS'hating'
p1640
I2
sS'screen'
p1641
I2
sS'follow'
p1642
I13
sS'causes'
p1643
I4
sS'seemed'
p1644
I141
sS'venice'
p1645
I1
sS'depend'
p1646
I26
sS'ceases'
p1647
I2
sS'daring'
p1648
I1
sS'fenced'
p1649
I1
sS'father'
p1650
I207
sS'misses'
p1651
I1
sS'spirit'
p1652
I27
sS'charge'
p1653
I18
sS'behave'
p1654
I3
sS'stable'
p1655
I2
sS'terror'
p1656
I6
sS'health'
p1657
I39
sS'gravel'
p1658
I2
sS'snowed'
p1659
I2
sS'feebly'
p1660
I1
sS'retire'
p1661
I1
sS'wished'
p1662
I48
sS'parcel'
p1663
I8
sS'hannah'
p1664
I2
sS'horror'
p1665
I8
sS'drudge'
p1666
I1
sS'hughes'
p1667
I3
sS'induce'
p1668
I7
sS'choice'
p1669
I9
sS'wishes'
p1670
I20
sS'served'
p1671
I1
sS'bustle'
p1672
I10
sS'decide'
p1673
I5
sS'mixing'
p1674
I1
sS'affect'
p1675
I5
sS'airing'
p1676
I4
sS'gammon'
p1677
I1
sS'feeble'
p1678
I1
sS'minute'
p1679
I16
sS'entire'
p1680
I8
sS'school'
p1681
I13
sS'heaven'
p1682
I4
sS'sighed'
p1683
I2
sS'inward'
p1684
I1
sS'repast'
p1685
I1
sS'dispel'
p1686
I1
sS'knight'
p1687
I1
sS'laying'
p1688
I1
sS'joined'
p1689
I17
sS'settle'
p1690
I12
sS'graces'
p1691
I2
sS'idlest'
p1692
I1
sS'parted'
p1693
I10
sS'talked'
p1694
I66
sS'regret'
p1695
I26
sS'clover'
p1696
I1
sS'direct'
p1697
I10
sS'breaks'
p1698
I1
sS'steaks'
p1699
I1
sS'insult'
p1700
I1
sS'likely'
p1701
I46
sS'street'
p1702
I11
sS'design'
p1703
I4
sS'talker'
p1704
I6
sS'lawyer'
p1705
I3
sS'corner'
p1706
I7
sS'ardent'
p1707
I2
sS'hoarse'
p1708
I2
sS'ribbon'
p1709
I4
sS'abbots'
p1710
I1
sS'admire'
p1711
I9
sS'errors'
p1712
I4
sS'appear'
p1713
I36
sS'adieus'
p1714
I1
sS'giving'
p1715
I46
sS'deeply'
p1716
I10
sS'favour'
p1717
I26
sS'poison'
p1718
I2
sS'sharer'
p1719
I1
sS'lights'
p1720
I1
sS'timber'
p1721
I1
sS'freaks'
p1722
I1
sS'shared'
p1723
I2
sS'poorly'
p1724
I2
sS'public'
p1725
I13
sS'filled'
p1726
I2
sS'sharks'
p1727
I1
sS'deemed'
p1728
I4
sS'degree'
p1729
I56
sS'shaded'
p1730
I1
sS'muslin'
p1731
I1
sS'honour'
p1732
I27
sS'equals'
p1733
I1
sS'french'
p1734
I1
sS'issued'
p1735
I1
sS'others'
p1736
I60
sS'active'
p1737
I7
sS'tremor'
p1738
I1
sS'strong'
p1739
I44
sS'curled'
p1740
I1
sS'change'
p1741
I61
sS'graver'
p1742
I2
sS'slices'
p1743
I1
sS'admits'
p1744
I1
sS'remark'
p1745
I6
sS'engage'
p1746
I7
sS'talent'
p1747
I9
sS'thirty'
p1748
I5
sS'broken'
p1749
I3
sS'enmity'
p1750
I1
sS'pearls'
p1751
I2
sS'leaves'
p1752
I1
sS'larger'
p1753
I8
sS'pitied'
p1754
I2
sS'bestow'
p1755
I2
sS'brutal'
p1756
I1
sS'credit'
p1757
I18
sS'amount'
p1758
I4
sS'survey'
p1759
I1
sS'spinet'
p1760
I1
sS'grease'
p1761
I1
sS'social'
p1762
I6
sS'action'
p1763
I6
sS'narrow'
p1764
I4
sS'delays'
p1765
I4
sS'hither'
p1766
I3
sS'useful'
p1767
I21
sS'secure'
p1768
I9
sS'humour'
p1769
I17
sS'danger'
p1770
I31
sS'forbid'
p1771
I3
sS'hatred'
p1772
I1
sS'merely'
p1773
I29
sS'manage'
p1774
I5
sS'prefer'
p1775
I6
sS'sample'
p1776
I1
sS'marked'
p1777
I3
sS'highly'
p1778
I24
sS'county'
p1779
I2
sS'ninety'
p1780
I2
sS'fagged'
p1781
I2
sS'guests'
p1782
I7
sS'beheld'
p1783
I1
sS'glance'
p1784
I12
sS'rarely'
p1785
I2
sS'boasts'
p1786
I1
sS'crisis'
p1787
I4
sS'select'
p1788
I1
sS'wealth'
p1789
I7
sS'injure'
p1790
I2
sS'carpet'
p1791
I1
sS'stoops'
p1792
I2
sS'coldly'
p1793
I1
sS'eleven'
p1794
I2
sS'vigour'
p1795
I1
sS'memory'
p1796
I10
sS'strike'
p1797
I2
sS'injury'
p1798
I3
sS'betray'
p1799
I5
sS'horses'
p1800
I25
sS'pencil'
p1801
I5
sS'prized'
p1802
I1
sS'clever'
p1803
I27
sS'teased'
p1804
I1
sS'cameos'
p1805
I1
sS'giggle'
p1806
I1
sS'afford'
p1807
I6
sS'brings'
p1808
I4
sS'expose'
p1809
I5
sS'spoilt'
p1810
I1
sS'odious'
p1811
I3
sS'excuse'
p1812
I29
sS'landed'
p1813
I1
sS'dismal'
p1814
I1
sS'virtue'
p1815
I3
sS'gladly'
p1816
I3
sS'destin'
p1817
I1
sS'effort'
p1818
I5
sS'wretch'
p1819
I2
sS'behalf'
p1820
I1
sS'autumn'
p1821
I7
sS'valued'
p1822
I4
sS'locked'
p1823
I1
sS'rights'
p1824
I5
sS'pursue'
p1825
I1
sS'recall'
p1826
I3
sS'saddle'
p1827
I1
sS'remain'
p1828
I14
sS'itself'
p1829
I15
sS'values'
p1830
I1
sS'praise'
p1831
I31
sS'making'
p1832
I57
sS'arrive'
p1833
I5
sS'purity'
p1834
I1
sS'weaker'
p1835
I1
sS'prompt'
p1836
I6
sS'salted'
p1837
I2
sS'figure'
p1838
I10
sS'joyous'
p1839
I3
sS'unjust'
p1840
I6
sS'assent'
p1841
I3
sS'accept'
p1842
I11
sS'pieces'
p1843
I1
sS'paused'
p1844
I6
sS'ostler'
p1845
I5
sS'stroke'
p1846
I1
sS'stared'
p1847
I1
sS'refine'
p1848
I2
sS'jumble'
p1849
I1
sS'sought'
p1850
I6
sS'phrase'
p1851
I5
sS'garden'
p1852
I11
sS'sneers'
p1853
I1
sS'united'
p1854
I10
sS'winter'
p1855
I13
sS'rather'
p1856
I146
sS'travel'
p1857
I6
sS'whence'
p1858
I2
sS'stayed'
p1859
I1
sS'faults'
p1860
I11
sS'sunday'
p1861
I2
sS'forest'
p1862
I2
sS'sacred'
p1863
I1
sS'answer'
p1864
I64
sS'speedy'
p1865
I1
sS'speaks'
p1866
I9
sS'defeat'
p1867
I1
sS'entree'
p1868
I1
sS'tippet'
p1869
I2
sS'swayed'
p1870
I1
sS'attend'
p1871
I13
sS'advice'
p1872
I14
sS'louder'
p1873
I3
sS'hazard'
p1874
I4
sS'modest'
p1875
I3
sS'cromer'
p1876
I3
sS'hodges'
p1877
I5
sS'coming'
p1878
I89
sS'bushel'
p1879
I1
sS'accrue'
p1880
I1
sS'eighth'
p1881
I2
sS'physic'
p1882
I2
sS'varied'
p1883
I4
sS'refuse'
p1884
I16
sS'author'
p1885
I1
sS'retort'
p1886
I1
sS'remedy'
p1887
I1
sS'gloomy'
p1888
I1
sS'things'
p1889
I62
sS'basket'
p1890
I4
sS'penury'
p1891
I1
sS'minded'
p1892
I3
sS'treble'
p1893
I1
sS'infant'
p1894
I2
sS'accuse'
p1895
I1
sS'office'
p1896
I16
sS'devote'
p1897
I1
sS'coolly'
p1898
I8
sS'indeed'
p1899
I202
sS'ladies'
p1900
I45
sS'vainly'
p1901
I1
sS'course'
p1902
I61
sS'london'
p1903
I45
sS'argued'
p1904
I1
sS'suffer'
p1905
I13
sS'avenue'
p1906
I1
sS'before'
p1907
I250
sS'trifle'
p1908
I4
sS'judges'
p1909
I1
sS'solace'
p1910
I2
sS'shifts'
p1911
I1
sS'chosen'
p1912
I15
sS'nailed'
p1913
I1
sS'shewed'
p1914
I17
sS'better'
p1915
I173
sS'window'
p1916
I13
sS'offers'
p1917
I5
sS'firmly'
p1918
I2
sS'choose'
p1919
I1
sS'farmer'
p1920
I9
sS'chatty'
p1921
I2
sS'easier'
p1922
I3
sS'perrys'
p1923
I3
sS'coffee'
p1924
I2
sS'nought'
p1925
I1
sS'return'
p1926
I56
sS'fourth'
p1927
I1
sS'enrich'
p1928
I2
sS'sooner'
p1929
I12
sS'landau'
p1930
I7
sS'porker'
p1931
I1
sS'putrid'
p1932
I1
sS'oxford'
p1933
I2
sS'clouds'
p1934
I2
sS'detach'
p1935
I1
sS'killed'
p1936
I4
sS'strive'
p1937
I1
sS'rumour'
p1938
I2
sS'easily'
p1939
I14
sS'polish'
p1940
I1
sS'always'
p1941
I238
sS'artist'
p1942
I2
sS'truths'
p1943
I4
sS'habits'
p1944
I12
sS'leaned'
p1945
I1
sS'mounts'
p1946
I1
sS'esteem'
p1947
I3
sS'weighs'
p1948
I1
sS'calmly'
p1949
I3
sS'square'
p1950
I12
sS'begged'
p1951
I10
sS'mental'
p1952
I2
sS'weight'
p1953
I4
sS'scanty'
p1954
I2
sS'series'
p1955
I4
sS'energy'
p1956
I3
sS'repaid'
p1957
I1
sS'waking'
p1958
I1
sS'pantry'
p1959
I1
sS'richly'
p1960
I2
sS'taught'
p1961
I7
sS'turnip'
p1962
I1
sS'expect'
p1963
I20
sS'forgot'
p1964
I3
sS'happen'
p1965
I12
sS'beyond'
p1966
I54
sS'wander'
p1967
I2
sS'really'
p1968
I153
sS'living'
p1969
I18
sS'decree'
p1970
I1
sS'lovers'
p1971
I3
sS'missed'
p1972
I8
sS'hedges'
p1973
I2
sS'hourly'
p1974
I1
sS'robert'
p1975
I32
sS'freeze'
p1976
I1
sS'astray'
p1977
I2
sS'wholly'
p1978
I11
sS'remiss'
p1979
I4
sS'acting'
p1980
I8
sS'softly'
p1981
I1
sS'safety'
p1982
I10
sS'flowed'
p1983
I1
sS'fondly'
p1984
I4
sS'occurs'
p1985
I1
sS'parley'
p1986
I2
sS'wisest'
p1987
I3
sS'belief'
p1988
I2
sS'demure'
p1989
I3
sS'tables'
p1990
I1
sS'friday'
p1991
I3
sS'differ'
p1992
I1
sS'demurs'
p1993
I1
sS'houses'
p1994
I8
sS'reason'
p1995
I41
sS'bursts'
p1996
I1
sS'surely'
p1997
I3
sS'musing'
p1998
I3
sS'wanted'
p1999
I75
sS'thrown'
p2000
I19
sS'hasten'
p2001
I1
sS'allies'
p2002
I1
sS'shells'
p2003
I1
sS'flurry'
p2004
I1
sS'honest'
p2005
I5
sS'motion'
p2006
I5
sS'length'
p2007
I8
sS'allied'
p2008
I1
sS'oppose'
p2009
I5
sS'stolen'
p2010
I1
sS'envied'
p2011
I1
sS'impede'
p2012
I2
sS'outcry'
p2013
I1
sS'stanza'
p2014
I1
sS'fallen'
p2015
I7
sS'throws'
p2016
I1
sS'waited'
p2017
I6
sS'permit'
p2018
I1
sS'origin'
p2019
I4
sS'cheese'
p2020
I1
sS'finest'
p2021
I6
sS'saving'
p2022
I2
sS'rooted'
p2023
I1
sS'render'
p2024
I1
sS'spoken'
p2025
I31
sS'relate'
p2026
I5
sS'number'
p2027
I9
sS'revive'
p2028
I1
sS'bonnet'
p2029
I3
sS'plants'
p2030
I1
sS'submit'
p2031
I3
sS'sounds'
p2032
I3
sS'george'
p2033
I6
sS'owning'
p2034
I1
sS'passes'
p2035
I3
sS'little'
p2036
I359
sS'fuller'
p2037
I3
sS'silent'
p2038
I25
sS'nerves'
p2039
I6
sS'twenty'
p2040
I30
sS'caught'
p2041
I22
sS'vulgar'
p2042
I8
sS'accent'
p2043
I5
sS'system'
p2044
I5
sS'player'
p2045
I2
sS'attach'
p2046
I5
sS'attack'
p2047
I6
sS'blinds'
p2048
I1
sS'master'
p2049
I15
sS'passed'
p2050
I55
sS'basins'
p2051
I1
sS'lacing'
p2052
I1
sS'scheme'
p2053
I23
sS'bitter'
p2054
I3
sS'liquor'
p2055
I1
sS'friend'
p2056
I177
sS'listen'
p2057
I18
sS'justly'
p2058
I2
sS'deafer'
p2059
I1
sS'warmly'
p2060
I17
sS'draper'
p2061
I3
sS'season'
p2062
I6
sS'doomed'
p2063
I1
sS'nobody'
p2064
I73
sS'debate'
p2065
I1
sS'weakly'
p2066
I1
sS'scarce'
p2067
I2
sS'fidget'
p2068
I1
sS'wasted'
p2069
I1
sS'healed'
p2070
I1
sS'stairs'
p2071
I4
sS'summon'
p2072
I2
sS'begins'
p2073
I3
sS'kindly'
p2074
I11
sS'lament'
p2075
I5
sS'double'
p2076
I4
sS'second'
p2077
I31
sS'seated'
p2078
I12
sS'rarity'
p2079
I1
sS'shower'
p2080
I2
sS'matter'
p2081
I32
sS'future'
p2082
I16
sS'knives'
p2083
I1
sS'endure'
p2084
I13
sS'sedate'
p2085
I1
sS'asleep'
p2086
I2
sS'powers'
p2087
I14
sS'faints'
p2088
I1
sS'donkey'
p2089
I3
sS'vacant'
p2090
I2
sS'pigeon'
p2091
I1
sS'bragge'
p2092
I7
sS'topics'
p2093
I3
sS'modern'
p2094
I5
sS'turned'
p2095
I29
sS'gently'
p2096
I1
sS'jewels'
p2097
I1
sS'voices'
p2098
I4
sS'gentle'
p2099
I16
sS'rained'
p2100
I1
sS'manner'
p2101
I75
sS'throat'
p2102
I12
sS'orders'
p2103
I1
sS'viewed'
p2104
I2
sS'glibly'
p2105
I1
sS'forced'
p2106
I11
sS'afraid'
p2107
I65
sS'mostly'
p2108
I1
sS'dishes'
p2109
I1
sS'latter'
p2110
I6
sS'amends'
p2111
I4
sS'unfelt'
p2112
I1
sS'dining'
p2113
I13
sS'repute'
p2114
I1
sS'labour'
p2115
I4
sS'luxury'
p2116
I4
sS'chaise'
p2117
I4
sS'divert'
p2118
I1
sS'feared'
p2119
I12
sS'medals'
p2120
I1
sS'seized'
p2121
I5
sS'sequel'
p2122
I1
sS'unless'
p2123
I10
sS'though'
p2124
I177
sS'desert'
p2125
I2
sS'beauty'
p2126
I29
sS'object'
p2127
I39
sS'fresco'
p2128
I1
sS'offend'
p2129
I3
sS'letter'
p2130
I109
sS'hearts'
p2131
I1
sS'device'
p2132
I3
sS'stands'
p2133
I1
sS'salary'
p2134
I3
sS'demand'
p2135
I1
sS'raving'
p2136
I1
sS'clerks'
p2137
I1
sS'horrid'
p2138
I1
sS'spleen'
p2139
I1
sS'gather'
p2140
I2
sS'steady'
p2141
I11
sS'hungry'
p2142
I3
sS'looked'
p2143
I91
sS'solemn'
p2144
I5
sS'points'
p2145
I11
sS'absurd'
p2146
I1
sS'guinea'
p2147
I1
sS'docile'
p2148
I1
sS'treats'
p2149
I1
sS'ensued'
p2150
I1
sS'notion'
p2151
I5
sS'fitted'
p2152
I1
sS'saying'
p2153
I51
sS'medley'
p2154
I1
sS'wilful'
p2155
I2
sS'agreed'
p2156
I21
sS'random'
p2157
I2
sS'aghast'
p2158
I1
sS'ending'
p2159
I3
sS'bright'
p2160
I2
sS'crayon'
p2161
I1
sS'battle'
p2162
I1
sS'nephew'
p2163
I15
sS'agrees'
p2164
I2
sS'ground'
p2165
I15
sS'quarto'
p2166
I1
sS'nearer'
p2167
I8
sS'piquet'
p2168
I1
sS'acquit'
p2169
I6
sS'unkind'
p2170
I1
sS'stormy'
p2171
I1
sS'earned'
p2172
I2
sS'quaint'
p2173
I1
sS'unsaid'
p2174
I1
sS'writes'
p2175
I10
sS'writer'
p2176
I4
sS'folded'
p2177
I1
sS'behind'
p2178
I19
sS'darted'
p2179
I3
sS'should'
p2180
I369
sS'astley'
p2181
I4
sS'failed'
p2182
I9
sS'judged'
p2183
I13
sS'pretty'
p2184
I68
sS'muffin'
p2185
I1
sS'riding'
p2186
I1
sS'circle'
p2187
I18
sS'peeped'
p2188
I1
sS'tupman'
p2189
I1
sS'handle'
p2190
I1
sS'boyish'
p2191
I1
sS'resent'
p2192
I5
sS'pocket'
p2193
I2
sS'famous'
p2194
I3
sS'wallis'
p2195
I3
sS'cannot'
p2196
I142
sS'nearly'
p2197
I14
sS'lifted'
p2198
I1
sS'report'
p2199
I10
sS'during'
p2200
I17
sS'relish'
p2201
I1
sS'appeal'
p2202
I2
sS'estate'
p2203
I4
sS'outree'
p2204
I1
sS'keenly'
p2205
I1
sS'sickly'
p2206
I4
sS'nicely'
p2207
I5
sS'fields'
p2208
I1
sS'seldom'
p2209
I14
sS'borrow'
p2210
I1
sS'remove'
p2211
I5
sS'method'
p2212
I3
sS'stupid'
p2213
I4
sS'gloves'
p2214
I4
sS'common'
p2215
I35
sS'liable'
p2216
I6
sS'bought'
p2217
I4
sS'arises'
p2218
I1
sS'vision'
p2219
I1
sS'waters'
p2220
I1
sS'picnic'
p2221
I1
sS'grieve'
p2222
I3
sS'puddle'
p2223
I1
sS'orphan'
p2224
I1
sS'accord'
p2225
I1
sS'packet'
p2226
I1
sS'scenes'
p2227
I1
sS'resist'
p2228
I5
sS'doings'
p2229
I1
sS'merits'
p2230
I7
sS'result'
p2231
I6
sS'baking'
p2232
I1
sS'cattle'
p2233
I1
sS'tender'
p2234
I14
sS'humane'
p2235
I1
sS'purest'
p2236
I1
sS'breast'
p2237
I1
sS'wonder'
p2238
I49
sS'closer'
p2239
I1
sS'finale'
p2240
I1
sS'mutton'
p2241
I3
sS'learnt'
p2242
I2
sS'extend'
p2243
I1
sS'expert'
p2244
I2
sS'handed'
p2245
I4
sS'jumped'
p2246
I2
sS'afloat'
p2247
I1
sS'please'
p2248
I35
sS'genius'
p2249
I2
sS'enough'
p2250
I129
sS'unable'
p2251
I2
sS'finger'
p2252
I3
sS'closed'
p2253
I11
sS'impute'
p2254
I2
sS'weekly'
p2255
I1
sS'across'
p2256
I7
sS'thrive'
p2257
I1
sS'apples'
p2258
I15
sS'wisely'
p2259
I1
sS'milder'
p2260
I1
sS'notice'
p2261
I27
sS'august'
p2262
I3
sS'parent'
p2263
I2
sS'nature'
p2264
I41
sS'sorrow'
p2265
I4
sS'pained'
p2266
I1
sS'poorer'
p2267
I1
sS'wreath'
p2268
I1
sS'spared'
p2269
I7
sS'archly'
p2270
I1
sS'reigns'
p2271
I3
sS'extent'
p2272
I7
sS'teazed'
p2273
I1
sS'cousin'
p2274
I2
sS'league'
p2275
I1
sS'limits'
p2276
I1
sS'career'
p2277
I1
sS'aright'
p2278
I1
sS'taking'
p2279
I28
sS'barely'
p2280
I5
sS'temper'
p2281
I36
sS'assure'
p2282
I59
sS'tattle'
p2283
I1
sS'became'
p2284
I23
sS'barnes'
p2285
I1
sS'sports'
p2286
I1
sS'chuses'
p2287
I4
sS'buried'
p2288
I2
sS'safely'
p2289
I19
sS'riddle'
p2290
I5
sS'undone'
p2291
I1
sS'danced'
p2292
I8
sS'stream'
p2293
I1
sS'supply'
p2294
I9
sS'simple'
p2295
I18
sS'excess'
p2296
I1
sS'period'
p2297
I18
sS'height'
p2298
I6
sS'gaiety'
p2299
I4
sS'dances'
p2300
I7
sS'dancer'
p2301
I3
sS'simply'
p2302
I2
sS'adding'
p2303
I1
sS'church'
p2304
I7
sS'vessel'
p2305
I1
sS'hotter'
p2306
I2
sS'caring'
p2307
I3
sS'wright'
p2308
I4
sS'drills'
p2309
I1
sS'create'
p2310
I2
sS'breath'
p2311
I3
sS'secret'
p2312
I21
sS'slowly'
p2313
I6
sS'coarse'
p2314
I3
sS'covert'
p2315
I1
sS'copied'
p2316
I3
sS'lovely'
p2317
I11
sS'hardly'
p2318
I71
sS'warmth'
p2319
I12
sS'duties'
p2320
I3
sS'selina'
p2321
I10
sS'senses'
p2322
I4
sS'partly'
p2323
I1
sS'deeper'
p2324
I2
sS'sphere'
p2325
I1
sS'robbed'
p2326
I1
sS'formed'
p2327
I12
sS'excite'
p2328
I3
sS'homely'
p2329
I1
sS'ridden'
p2330
I2
sS'goodly'
p2331
I1
sS'lonely'
p2332
I1
sS'angles'
p2333
I1
sS'doubts'
p2334
I6
sS'worked'
p2335
I2
sS'denote'
p2336
I3
sS'former'
p2337
I14
sS'arisen'
p2338
I2
sS'paying'
p2339
I11
sS'soothe'
p2340
I1
sS'myself'
p2341
I103
sS'darker'
p2342
I2
sS'utmost'
p2343
I14
sS'unlike'
p2344
I5
sS'affirm'
p2345
I1
sS'frozen'
p2346
I3
sS'lessen'
p2347
I4
sS'employ'
p2348
I7
sS'proves'
p2349
I1
sS'abrupt'
p2350
I3
sS'remind'
p2351
I2
sS'sheets'
p2352
I1
sS'pushed'
p2353
I4
sS'shrubs'
p2354
I2
sS'losses'
p2355
I1
sS'hoping'
p2356
I7
sS'played'
p2357
I8
sS'almost'
p2358
I88
sS'dublin'
p2359
I1
sS'haunts'
p2360
I1
sS'helped'
p2361
I3
sS'middle'
p2362
I10
sS'sudden'
p2363
I20
sS'lodged'
p2364
I2
sS'vanish'
p2365
I1
sS'joints'
p2366
I1
sS'denial'
p2367
I4
sS'adored'
p2368
I1
sS'parish'
p2369
I9
sS'belong'
p2370
I15
sS'levity'
p2371
I1
sS'nicety'
p2372
I1
sS'wicked'
p2373
I1
sS'loudly'
p2374
I3
sS'speech'
p2375
I19
sS'flower'
p2376
I1
sS'widely'
p2377
I1
sS'advise'
p2378
I11
sS'cotton'
p2379
I3
sS'events'
p2380
I3
sS'higher'
p2381
I10
sS'fairly'
p2382
I9
sS'boiled'
p2383
I5
sS'assist'
p2384
I13
sS'effect'
p2385
I18
sS'driven'
p2386
I2
sS'devoid'
p2387
I1
sS'moment'
p2388
I120
sS'nights'
p2389
I4
sS'moving'
p2390
I10
sS'supper'
p2391
I11
sS'closet'
p2392
I1
sS'blamed'
p2393
I1
sS'wheres'
p2394
I1
sS'recent'
p2395
I3
sS'butter'
p2396
I2
sS'oddest'
p2397
I3
sS'flocks'
p2398
I1
sS'sinned'
p2399
I1
sS'colour'
p2400
I4
sS'humble'
p2401
I11
sS'pacing'
p2402
I1
sS'morrow'
p2403
I34
sS'person'
p2404
I67
sS'severe'
p2405
I18
sS'hearty'
p2406
I1
sS'flakes'
p2407
I2
sS'relief'
p2408
I9
sS'mother'
p2409
I72
sS'alarms'
p2410
I2
sS'claims'
p2411
I22
sS'reward'
p2412
I2
sS'amazed'
p2413
I4
sS'latest'
p2414
I4
sS'summer'
p2415
I23
sS'taller'
p2416
I1
sS'stores'
p2417
I2
sS'bearer'
p2418
I1
sS'selves'
p2419
I3
sS'guided'
p2420
I6
sS'goings'
p2421
I1
sS'sights'
p2422
I2
sS'unfair'
p2423
I4
sS'verses'
p2424
I2
sS'openly'
p2425
I6
sS'thanks'
p2426
I11
sS'aspect'
p2427
I1
sS'depart'
p2428
I1
sS'defend'
p2429
I1
sS'detain'
p2430
I2
sS'prince'
p2431
I1
sS'rescue'
p2432
I2
sS'divide'
p2433
I2
sS'doated'
p2434
I2
sS'enters'
p2435
I1
sS'family'
p2436
I77
sS'dearer'
p2437
I6
sS'meanly'
p2438
I1
sS'headed'
p2439
I3
sS'except'
p2440
I32
sS'silver'
p2441
I2
sS'source'
p2442
I7
sS'spread'
p2443
I7
sS'dreams'
p2444
I1
sS'plenty'
p2445
I5
sS'struck'
p2446
I25
sS'formal'
p2447
I4
sS'easter'
p2448
I2
sS'joyful'
p2449
I3
sS'styles'
p2450
I1
sS'cramer'
p2451
I1
sS'around'
p2452
I13
sS'worlds'
p2453
I2
sS'defies'
p2454
I1
sS'couple'
p2455
I22
sS'papers'
p2456
I3
sS'redeem'
p2457
I1
sS'unseen'
p2458
I3
sS'dearly'
p2459
I2
sS'dreamt'
p2460
I1
sS'shadow'
p2461
I2
sS'woeful'
p2462
I1
sS'string'
p2463
I3
sS'vanity'
p2464
I15
sS'desire'
p2465
I1
sS'pounds'
p2466
I4
sS'cooler'
p2467
I4
sS'gifted'
p2468
I1
sS'almane'
p2469
I1
sS'facing'
p2470
I1
sS'safest'
p2471
I3
sS'misled'
p2472
I2
sS'either'
p2473
I64
sS'martin'
p2474
I85
sS'become'
p2475
I12
sS'minced'
p2476
I1
sS'cooled'
p2477
I2
sS'twelve'
p2478
I7
sS'exceed'
p2479
I4
sS'parade'
p2480
I7
sS'lashes'
p2481
I2
sS'people'
p2482
I95
sS'spring'
p2483
I14
sS'scrape'
p2484
I2
sS'eyeing'
p2485
I2
sS'motive'
p2486
I9
sS'urgent'
p2487
I2
sS'roused'
p2488
I2
sS'warmer'
p2489
I6
sS'convey'
p2490
I5
sS'escape'
p2491
I15
sS'proper'
p2492
I42
sS'liking'
p2493
I6
sS'proofs'
p2494
I4
sS'cowper'
p2495
I1
sS'thinks'
p2496
I23
sS'spruce'
p2497
I5
sS'cooper'
p2498
I1
sS'bottom'
p2499
I3
sS'purple'
p2500
I1
sS'centre'
p2501
I3
sS'arthur'
p2502
I1
sS'reckon'
p2503
I2
sS'asking'
p2504
I10
sS'market'
p2505
I1
sS'denied'
p2506
I4
sS'dating'
p2507
I1
sS'neatly'
p2508
I1
sS'eating'
p2509
I7
sS'slight'
p2510
I17
sS'smiths'
p2511
I1
sS'uneasy'
p2512
I11
sS'resign'
p2513
I1
sS'calmer'
p2514
I2
sS'worthy'
p2515
I18
sS'losing'
p2516
I5
sS'abroad'
p2517
I8
sS'shaken'
p2518
I6
sS'gained'
p2519
I5
sS'stokes'
p2520
I4
sS'sister'
p2521
I33
sS'actual'
p2522
I3
sS'dixons'
p2523
I3
sS'impose'
p2524
I1
sS'column'
p2525
I1
sS'theirs'
p2526
I1
sS'unison'
p2527
I1
sS'months'
p2528
I30
sS'madame'
p2529
I1
sS'dinner'
p2530
I49
sS'ensure'
p2531
I2
sS'guilty'
p2532
I1
sS'gainer'
p2533
I1
sS'decent'
p2534
I1
sS'corals'
p2535
I1
sS'commit'
p2536
I2
sS'tongue'
p2537
I8
sS'sleety'
p2538
I1
sS'seeing'
p2539
I51
sS'raised'
p2540
I6
sS'smiled'
p2541
I17
sS'eltons'
p2542
I22
sS'puzzle'
p2543
I2
sS'within'
p2544
I33
sS'carrot'
p2545
I1
sS'sketch'
p2546
I3
sS'framed'
p2547
I2
sS'beings'
p2548
I3
sS'rising'
p2549
I6
sS'lively'
p2550
I12
sS'female'
p2551
I7
sS'heated'
p2552
I3
sS'lesson'
p2553
I3
sS'fixing'
p2554
I1
sS'smells'
p2555
I1
sS'shabby'
p2556
I2
sS'amidst'
p2557
I1
sS'verbal'
p2558
I1
sS'rushed'
p2559
I1
sS'flying'
p2560
I1
sS'errand'
p2561
I7
sS'custom'
p2562
I3
sS'occupy'
p2563
I7
sS'avowed'
p2564
I1
sS'sealed'
p2565
I1
sS'colder'
p2566
I1
sS'whiten'
p2567
I1
sS'bodies'
p2568
I1
sS'strict'
p2569
I3
sS'errant'
p2570
I1
sS'lowest'
p2571
I1
sS'medium'
p2572
I2
sS'invite'
p2573
I13
sS'otways'
p2574
I1
sS'kinder'
p2575
I5
sS'regard'
p2576
I43
sS'arrear'
p2577
I1
sS'volume'
p2578
I3
sS'butler'
p2579
I2
sS'plague'
p2580
I2
sS'courts'
p2581
I1
sS'doubly'
p2582
I3
sS'trying'
p2583
I23
sS'nodded'
p2584
I1
sS'tittle'
p2585
I1
sS'faster'
p2586
I2
sS'abused'
p2587
I1
sS'absent'
p2588
I10
sS'nieces'
p2589
I2
sS'places'
p2590
I11
sS'traits'
p2591
I1
sS'shrunk'
p2592
I1
sS'smooth'
p2593
I7
sS'bounds'
p2594
I1
sS'signed'
p2595
I2
sS'ruined'
p2596
I1
sS'cobham'
p2597
I1
sS'placed'
p2598
I15
sS'tosses'
p2599
I1
sS'native'
p2600
I5
sS'apiece'
p2601
I1
sS'mighty'
p2602
I1
sS'cheeks'
p2603
I4
sS'called'
p2604
I44
sS'urging'
p2605
I2
sS'misery'
p2606
I12
sS'genial'
p2607
I1
sS'taylor'
p2608
I48
sS'proved'
p2609
I16
sS'fright'
p2610
I1
sS'dismay'
p2611
I1
sS'devise'
p2612
I1
sS'willed'
p2613
I1
sS'paling'
p2614
I1
sS'unsafe'
p2615
I1
sS'fellow'
p2616
I9
sS'weston'
p2617
I440
sS'single'
p2618
I19
sS'enable'
p2619
I2
sS'flight'
p2620
I1
sS'merest'
p2621
I1
sS'kissed'
p2622
I2
sS'deceit'
p2623
I2
sS'naming'
p2624
I3
sS'nursed'
p2625
I3
sS'mutual'
p2626
I5
sS'dashed'
p2627
I2
sS'insane'
p2628
I1
sS'detail'
p2629
I3
sS'repent'
p2630
I6
sS'lately'
p2631
I21
sS'rubber'
p2632
I1
sS'finish'
p2633
I4
sS'gossip'
p2634
I1
sS'branch'
p2635
I2
sS'income'
p2636
I10
sS'tricks'
p2637
I1
sS'behold'
p2638
I3
sS'smiles'
p2639
I15
sS'nnight'
p2640
I1
sS'repeat'
p2641
I1
sS'monday'
p2642
I2
sS'oblige'
p2643
I3
sS'scream'
p2644
I1
sS'polite'
p2645
I2
sS'visits'
p2646
I14
sS'unwell'
p2647
I7
sS'walker'
p2648
I1
sS'chance'
p2649
I20
sS'rested'
p2650
I2
sS'intent'
p2651
I3
sS'gayest'
p2652
I1
sS'suited'
p2653
I8
sS'needed'
p2654
I2
sS'opened'
p2655
I16
sS'assert'
p2656
I1
sS'remote'
p2657
I1
sS'longer'
p2658
I59
sS'finery'
p2659
I5
sS'assume'
p2660
I1
sS'invent'
p2661
I2
sS'lasted'
p2662
I3
sS'walked'
p2663
I52
sS'amused'
p2664
I18
sS'poplin'
p2665
I1
sS'profit'
p2666
I2
sS'impair'
p2667
I1
sS'longed'
p2668
I6
sS'amuses'
p2669
I2
sS'fasten'
p2670
I2
sS'having'
p2671
I147
sS'waives'
p2672
I1
sa(dp2673
S'limited'
p2674
I3
sS'pervert'
p2675
I1
sS'partial'
p2676
I7
sS'impulse'
p2677
I1
sS'whoever'
p2678
I4
sS'relieve'
p2679
I3
sS'despise'
p2680
I1
sS'obviate'
p2681
I1
sS'blanche'
p2682
I1
sS'unmixed'
p2683
I1
sS'protest'
p2684
I8
sS'nursery'
p2685
I3
sS'broader'
p2686
I2
sS'welfare'
p2687
I4
sS'mansion'
p2688
I1
sS'managed'
p2689
I1
sS'captain'
p2690
I3
sS'discern'
p2691
I3
sS'devoted'
p2692
I5
sS'glimpse'
p2693
I4
sS'compose'
p2694
I5
sS'praises'
p2695
I1
sS'hunting'
p2696
I1
sS'snowing'
p2697
I3
sS'useable'
p2698
I1
sS'promote'
p2699
I4
sS'intreat'
p2700
I1
sS'removal'
p2701
I7
sS'praised'
p2702
I5
sS'felling'
p2703
I1
sS'westons'
p2704
I8
sS'blended'
p2705
I2
sS'dislike'
p2706
I17
sS'irksome'
p2707
I1
sS'regrets'
p2708
I6
sS'waiters'
p2709
I1
sS'fancied'
p2710
I9
sS'sinking'
p2711
I6
sS'adviser'
p2712
I1
sS'turnips'
p2713
I1
sS'broadly'
p2714
I1
sS'sitting'
p2715
I40
sS'dessert'
p2716
I2
sS'trident'
p2717
I1
sS'account'
p2718
I59
sS'floated'
p2719
I1
sS'results'
p2720
I1
sS'puzzles'
p2721
I1
sS'denoted'
p2722
I1
sS'crosses'
p2723
I1
sS'putting'
p2724
I10
sS'defying'
p2725
I1
sS'advised'
p2726
I4
sS'telling'
p2727
I22
sS'abusing'
p2728
I2
sS'trouble'
p2729
I17
sS'kindled'
p2730
I1
sS'arrange'
p2731
I3
sS'disturb'
p2732
I3
sS'washing'
p2733
I1
sS'scholar'
p2734
I1
sS'elevate'
p2735
I2
sS'clothed'
p2736
I2
sS'laurels'
p2737
I1
sS'brother'
p2738
I55
sS'anxious'
p2739
I31
sS'further'
p2740
I1
sS'harriet'
p2741
I506
sS'fairfax'
p2742
I241
sS'triumph'
p2743
I6
sS'clothes'
p2744
I1
sS'prevent'
p2745
I17
sS'smaller'
p2746
I3
sS'fearing'
p2747
I1
sS'dinners'
p2748
I2
sS'concise'
p2749
I2
sS'dealing'
p2750
I3
sS'hanging'
p2751
I3
sS'unheard'
p2752
I2
sS'agitate'
p2753
I1
sS'elegant'
p2754
I25
sS'vouches'
p2755
I1
sS'garters'
p2756
I1
sS'languor'
p2757
I2
sS'affable'
p2758
I1
sS'chicken'
p2759
I2
sS'quicken'
p2760
I1
sS'educate'
p2761
I1
sS'defence'
p2762
I2
sS'richard'
p2763
I2
sS'colonel'
p2764
I38
sS'eminent'
p2765
I1
sS'liberty'
p2766
I9
sS'enjoyed'
p2767
I7
sS'waiting'
p2768
I16
sS'suspect'
p2769
I21
sS'conduct'
p2770
I27
sS'divined'
p2771
I1
sS'falling'
p2772
I9
sS'charade'
p2773
I21
sS'bearers'
p2774
I1
sS'satisfy'
p2775
I10
sS'ciphers'
p2776
I1
sS'unasked'
p2777
I1
sS'notions'
p2778
I6
sS'desires'
p2779
I2
sS'shocked'
p2780
I7
sS'funeral'
p2781
I1
sS'pushing'
p2782
I2
sS'kindred'
p2783
I1
sS'richest'
p2784
I1
sS'answers'
p2785
I2
sS'virtues'
p2786
I2
sS'desired'
p2787
I12
sS'explore'
p2788
I4
sS'objects'
p2789
I7
sS'poverty'
p2790
I3
sS'pursuit'
p2791
I5
sS'widower'
p2792
I2
sS'address'
p2793
I9
sS'teaches'
p2794
I1
sS'appears'
p2795
I13
sS'extreme'
p2796
I11
sS'natured'
p2797
I8
sS'sending'
p2798
I7
sS'balance'
p2799
I1
sS'receive'
p2800
I10
sS'coxcomb'
p2801
I3
sS'changed'
p2802
I6
sS'reports'
p2803
I2
sS'leaving'
p2804
I10
sS'rousing'
p2805
I3
sS'baronne'
p2806
I1
sS'farming'
p2807
I2
sS'cousins'
p2808
I2
sS'usually'
p2809
I4
sS'opinion'
p2810
I71
sS'quarrel'
p2811
I11
sS'settled'
p2812
I39
sS'similar'
p2813
I3
sS'envious'
p2814
I2
sS'retired'
p2815
I5
sS'nearest'
p2816
I1
sS'lending'
p2817
I1
sS'visibly'
p2818
I2
sS'private'
p2819
I12
sS'summons'
p2820
I2
sS'brought'
p2821
I54
sS'visible'
p2822
I2
sS'indoors'
p2823
I1
sS'drowned'
p2824
I1
sS'mortify'
p2825
I1
sS'stirred'
p2826
I1
sS'passage'
p2827
I14
sS'singing'
p2828
I5
sS'denotes'
p2829
I1
sS'readily'
p2830
I7
sS'prolong'
p2831
I1
sS'proceed'
p2832
I12
sS'working'
p2833
I5
sS'salting'
p2834
I1
sS'remains'
p2835
I5
sS'coupled'
p2836
I1
sS'predict'
p2837
I2
sS'opposed'
p2838
I4
sS'sighted'
p2839
I2
sS'survive'
p2840
I1
sS'checker'
p2841
I1
sS'capital'
p2842
I3
sS'deepest'
p2843
I2
sS'breathe'
p2844
I3
sS'darting'
p2845
I1
sS'sharing'
p2846
I2
sS'females'
p2847
I2
sS'started'
p2848
I3
sS'becomes'
p2849
I5
sS'company'
p2850
I35
sS'acceded'
p2851
I1
sS'refrain'
p2852
I5
sS'ashamed'
p2853
I28
sS'varying'
p2854
I1
sS'mounted'
p2855
I1
sS'chatted'
p2856
I1
sS'eatable'
p2857
I1
sS'charity'
p2858
I6
sS'involve'
p2859
I1
sS'keeping'
p2860
I11
sS'lengths'
p2861
I2
sS'waiving'
p2862
I1
sS'pretend'
p2863
I10
sS'forcing'
p2864
I1
sS'meadows'
p2865
I4
sS'crossed'
p2866
I6
sS'beavers'
p2867
I1
sS'growing'
p2868
I17
sS'pulling'
p2869
I1
sS'closing'
p2870
I2
sS'example'
p2871
I5
sS'history'
p2872
I17
sS'admired'
p2873
I16
sS'compare'
p2874
I6
sS'proudly'
p2875
I1
sS'admires'
p2876
I1
sS'process'
p2877
I2
sS'gravely'
p2878
I5
sS'admirer'
p2879
I5
sS'escaped'
p2880
I7
sS'claimed'
p2881
I2
sS'villain'
p2882
I1
sS'guarded'
p2883
I3
sS'caution'
p2884
I14
sS'numbers'
p2885
I7
sS'council'
p2886
I2
sS'allowed'
p2887
I40
sS'exclude'
p2888
I1
sS'provoke'
p2889
I1
sS'reprove'
p2890
I1
sS'muslins'
p2891
I1
sS'larkins'
p2892
I13
sS'decides'
p2893
I1
sS'awkward'
p2894
I12
sS'recited'
p2895
I1
sS'provide'
p2896
I4
sS'naivete'
p2897
I4
sS'secured'
p2898
I11
sS'comfort'
p2899
I65
sS'parlour'
p2900
I12
sS'feature'
p2901
I5
sS'unlucky'
p2902
I4
sS'amazing'
p2903
I4
sS'instead'
p2904
I27
sS'condemn'
p2905
I2
sS'deplore'
p2906
I2
sS'secures'
p2907
I1
sS'forgave'
p2908
I1
sS'chusing'
p2909
I2
sS'beaufet'
p2910
I1
sS'staying'
p2911
I14
sS'ceasing'
p2912
I1
sS'emulate'
p2913
I1
sS'earlier'
p2914
I8
sS'averted'
p2915
I2
sS'reflect'
p2916
I2
sS'informs'
p2917
I1
sS'produce'
p2918
I10
sS'fatigue'
p2919
I2
sS'terrors'
p2920
I1
sS'courses'
p2921
I1
sS'cabbage'
p2922
I1
sS'flutter'
p2923
I7
sS'replete'
p2924
I2
sS'attempt'
p2925
I20
sS'chiefly'
p2926
I7
sS'orchard'
p2927
I2
sS'martins'
p2928
I13
sS'candles'
p2929
I4
sS'prefers'
p2930
I1
sS'counter'
p2931
I2
sS'blunder'
p2932
I7
sS'inquire'
p2933
I9
sS'fondest'
p2934
I1
sS'harshly'
p2935
I1
sS'deposit'
p2936
I1
sS'deceive'
p2937
I3
sS'suggest'
p2938
I2
sS'slyness'
p2939
I1
sS'oysters'
p2940
I1
sS'playing'
p2941
I10
sS'furnish'
p2942
I2
sS'replied'
p2943
I79
sS'unspent'
p2944
I1
sS'bathing'
p2945
I6
sS'woollen'
p2946
I1
sS'lighter'
p2947
I1
sS'consent'
p2948
I14
sS'pointed'
p2949
I5
sS'insight'
p2950
I1
sS'wishing'
p2951
I17
sS'equally'
p2952
I18
sS'enlarge'
p2953
I1
sS'playful'
p2954
I2
sS'waltzes'
p2955
I1
sS'dearest'
p2956
I20
sS'through'
p2957
I61
sS'replies'
p2958
I2
sS'smiling'
p2959
I31
sS'fullest'
p2960
I2
sS'ostalis'
p2961
I1
sS'dreamer'
p2962
I2
sS'perfect'
p2963
I34
sS'revived'
p2964
I3
sS'rapidly'
p2965
I6
sS'secresy'
p2966
I3
sS'decorum'
p2967
I2
sS'labours'
p2968
I1
sS'coarser'
p2969
I1
sS'glowing'
p2970
I2
sS'writing'
p2971
I14
sS'absence'
p2972
I15
sS'willing'
p2973
I13
sS'flowers'
p2974
I1
sS'systems'
p2975
I1
sS'glanced'
p2976
I2
sS'covered'
p2977
I3
sS'holiday'
p2978
I2
sS'vehicle'
p2979
I1
sS'designs'
p2980
I2
sS'evening'
p2981
I96
sS'greater'
p2982
I29
sS'nestled'
p2983
I1
sS'seeking'
p2984
I1
sS'matches'
p2985
I6
sS'propose'
p2986
I5
sS'mention'
p2987
I19
sS'cutting'
p2988
I5
sS'effects'
p2989
I5
sS'indulge'
p2990
I7
sS'suffice'
p2991
I1
sS'sixteen'
p2992
I9
sS'discuss'
p2993
I1
sS'possess'
p2994
I2
sS'mystery'
p2995
I5
sS'masters'
p2996
I1
sS'glaring'
p2997
I2
sS'inspire'
p2998
I1
sS'servant'
p2999
I6
sS'january'
p3000
I5
sS'slavery'
p3001
I1
sS'refresh'
p3002
I3
sS'trimmed'
p3003
I2
sS'filling'
p3004
I1
sS'fetches'
p3005
I1
sS'stopped'
p3006
I17
sS'dulness'
p3007
I3
sS'rightly'
p3008
I4
sS'quarter'
p3009
I25
sS'shaking'
p3010
I4
sS'busiest'
p3011
I1
sS'blushed'
p3012
I7
sS'lasting'
p3013
I5
sS'schemes'
p3014
I7
sS'england'
p3015
I10
sS'morrows'
p3016
I2
sS'blinder'
p3017
I1
sS'hurried'
p3018
I8
sS'society'
p3019
I48
sS'steeper'
p3020
I1
sS'stabbed'
p3021
I1
sS'connect'
p3022
I2
sS'measure'
p3023
I7
sS'relates'
p3024
I2
sS'zigzags'
p3025
I1
sS'calling'
p3026
I19
sS'blinded'
p3027
I4
sS'witness'
p3028
I4
sS'gipsies'
p3029
I6
sS'gallant'
p3030
I11
sS'deedily'
p3031
I1
sS'driving'
p3032
I4
sS'tribute'
p3033
I2
sS'confess'
p3034
I13
sS'sitters'
p3035
I1
sS'sighing'
p3036
I5
sS'testify'
p3037
I1
sS'hastily'
p3038
I7
sS'looking'
p3039
I69
sS'candour'
p3040
I5
sS'implore'
p3041
I1
sS'preface'
p3042
I1
sS'lecture'
p3043
I1
sS'darling'
p3044
I1
sS'induced'
p3045
I12
sS'correct'
p3046
I5
sS'dancers'
p3047
I1
sS'turning'
p3048
I24
sS'assured'
p3049
I16
sS'derived'
p3050
I1
sS'million'
p3051
I2
sS'eternal'
p3052
I2
sS'forgive'
p3053
I7
sS'walnuts'
p3054
I2
sS'qualify'
p3055
I1
sS'dashing'
p3056
I1
sS'upbraid'
p3057
I1
sS'besides'
p3058
I17
sS'imagine'
p3059
I55
sS'checked'
p3060
I3
sS'spencer'
p3061
I1
sS'ribband'
p3062
I1
sS'resumed'
p3063
I9
sS'advance'
p3064
I4
sS'perform'
p3065
I2
sS'created'
p3066
I1
sS'buyings'
p3067
I1
sS'hinting'
p3068
I1
sS'caprice'
p3069
I3
sS'jumping'
p3070
I1
sS'bragges'
p3071
I2
sS'unknown'
p3072
I4
sS'undergo'
p3073
I1
sS'neglect'
p3074
I6
sS'scorned'
p3075
I1
sS'emotion'
p3076
I3
sS'already'
p3077
I45
sS'fetched'
p3078
I2
sS'seeming'
p3079
I10
sS'plainly'
p3080
I6
sS'milmans'
p3081
I1
sS'confuse'
p3082
I1
sS'passive'
p3083
I1
sS'hearing'
p3084
I32
sS'jealous'
p3085
I3
sS'cockade'
p3086
I1
sS'quicker'
p3087
I1
sS'defects'
p3088
I1
sS'another'
p3089
I114
sS'gloried'
p3090
I1
sS'reached'
p3091
I16
sS'message'
p3092
I11
sS'quality'
p3093
I2
sS'affords'
p3094
I1
sS'concert'
p3095
I1
sS'feeding'
p3096
I1
sS'ancient'
p3097
I1
sS'donwell'
p3098
I49
sS'service'
p3099
I23
sS'blossom'
p3100
I1
sS'leading'
p3101
I8
sS'obtrude'
p3102
I1
sS'infancy'
p3103
I1
sS'garrick'
p3104
I1
sS'dressed'
p3105
I8
sS'teacher'
p3106
I2
sS'station'
p3107
I3
sS'wrapped'
p3108
I1
sS'gilbert'
p3109
I5
sS'hundred'
p3110
I15
sS'behaved'
p3111
I11
sS'fairest'
p3112
I2
sS'painful'
p3113
I5
sS'artless'
p3114
I4
sS'shifted'
p3115
I1
sS'ceiling'
p3116
I1
sS'streets'
p3117
I1
sS'stomach'
p3118
I2
sS'tempers'
p3119
I1
sS'reverie'
p3120
I2
sS'happily'
p3121
I18
sS'exactly'
p3122
I58
sS'proving'
p3123
I4
sS'crosser'
p3124
I1
sS'gaiters'
p3125
I1
sS'kindest'
p3126
I3
sS'dentist'
p3127
I3
sS'regards'
p3128
I2
sS'nominal'
p3129
I1
sS'consult'
p3130
I5
sS'natural'
p3131
I52
sS'attract'
p3132
I1
sS'believe'
p3133
I102
sS'herself'
p3134
I279
sS'matting'
p3135
I1
sS'anxiety'
p3136
I19
sS'gradual'
p3137
I1
sS'warfare'
p3138
I2
sS'edition'
p3139
I1
sS'travels'
p3140
I1
sS'require'
p3141
I7
sS'crowded'
p3142
I2
sS'enabled'
p3143
I1
sS'project'
p3144
I2
sS'accused'
p3145
I1
sS'humours'
p3146
I2
sS'mermaid'
p3147
I2
sS'venture'
p3148
I12
sS'spoiled'
p3149
I4
sS'visited'
p3150
I5
sS'feeling'
p3151
I56
sS'treated'
p3152
I5
sS'declare'
p3153
I12
sS'sublime'
p3154
I1
sS'tongues'
p3155
I1
sS'passant'
p3156
I1
sS'illness'
p3157
I9
sS'trifles'
p3158
I2
sS'horrors'
p3159
I2
sS'talking'
p3160
I53
sS'lurking'
p3161
I1
sS'hautboy'
p3162
I1
sS'recover'
p3163
I5
sS'windsor'
p3164
I6
sS'affairs'
p3165
I5
sS'quieter'
p3166
I1
sS'genuine'
p3167
I3
sS'relapse'
p3168
I1
sS'aladdin'
p3169
I1
sS'dancing'
p3170
I33
sS'pursued'
p3171
I1
sS'gravity'
p3172
I2
sS'eagerly'
p3173
I11
sS'intends'
p3174
I1
sS'amusing'
p3175
I7
sS'analogy'
p3176
I1
sS'laughed'
p3177
I16
sS'finding'
p3178
I18
sS'wanting'
p3179
I33
sS'concern'
p3180
I18
sS'justest'
p3181
I1
sS'channel'
p3182
I1
sS'skilful'
p3183
I1
sS'circles'
p3184
I1
sS'towards'
p3185
I66
sS'altered'
p3186
I5
sS'finesse'
p3187
I1
sS'swiftly'
p3188
I1
sS'procure'
p3189
I4
sS'boiling'
p3190
I1
sS'regular'
p3191
I17
sS'amongst'
p3192
I3
sS'plainer'
p3193
I1
sS'nothing'
p3194
I256
sS'proverb'
p3195
I1
sS'alarmed'
p3196
I7
sS'parting'
p3197
I13
sS'destiny'
p3198
I7
sS'forever'
p3199
I1
sS'unequal'
p3200
I7
sS'sweetly'
p3201
I2
sS'windows'
p3202
I9
sS'medical'
p3203
I1
sS'request'
p3204
I4
sS'drawing'
p3205
I30
sS'dorking'
p3206
I1
sS'orderly'
p3207
I1
sS'gesture'
p3208
I1
sS'randall'
p3209
I1
sS'forlorn'
p3210
I3
sS'donkeys'
p3211
I1
sS'wounded'
p3212
I1
sS'briskly'
p3213
I2
sS'urgency'
p3214
I2
sS'reserve'
p3215
I11
sS'precise'
p3216
I2
sS'bending'
p3217
I1
sS'walking'
p3218
I45
sS'murmurs'
p3219
I1
sS'languid'
p3220
I1
sS'chances'
p3221
I5
sS'visitor'
p3222
I9
sS'pleases'
p3223
I3
sS'tidings'
p3224
I3
sS'foresaw'
p3225
I3
sS'fervour'
p3226
I1
sS'upright'
p3227
I7
sS'madeira'
p3228
I1
sS'tacitly'
p3229
I2
sS'aspired'
p3230
I2
sS'tempted'
p3231
I10
sS'heavens'
p3232
I2
sS'trivial'
p3233
I3
sS'pleased'
p3234
I47
sS'lessons'
p3235
I1
sS'touches'
p3236
I2
sS'removed'
p3237
I10
sS'deserts'
p3238
I1
sS'justice'
p3239
I24
sS'nervous'
p3240
I11
sS'explain'
p3241
I4
sS'wittier'
p3242
I2
sS'unhappy'
p3243
I19
sS'buttons'
p3244
I1
sS'touched'
p3245
I4
sS'disgust'
p3246
I5
sS'partake'
p3247
I2
sS'outrage'
p3248
I1
sS'dreaded'
p3249
I2
sS'forfeit'
p3250
I1
sS'lighted'
p3251
I1
sS'gratify'
p3252
I3
sS'mixture'
p3253
I8
sS'ringing'
p3254
I1
sS'revolts'
p3255
I1
sS'express'
p3256
I15
sS'begging'
p3257
I1
sS'leisure'
p3258
I13
sS'yielded'
p3259
I2
sS'courage'
p3260
I6
sS'haunted'
p3261
I1
sS'longest'
p3262
I3
sS'closely'
p3263
I1
sS'wedding'
p3264
I17
sS'honours'
p3265
I1
sS'coaches'
p3266
I1
sS'learned'
p3267
I2
sS'chimney'
p3268
I1
sS'resolve'
p3269
I10
sS'blushes'
p3270
I1
sS'leather'
p3271
I1
sS'boarder'
p3272
I5
sS'married'
p3273
I45
sS'fainted'
p3274
I2
sS'morning'
p3275
I111
sS'genteel'
p3276
I2
sS'contain'
p3277
I1
sS'release'
p3278
I1
sS'tumbler'
p3279
I1
sS'marries'
p3280
I4
sS'husband'
p3281
I34
sS'arrival'
p3282
I13
sS'penance'
p3283
I6
sS'signify'
p3284
I3
sS'bandied'
p3285
I1
sS'turkeys'
p3286
I1
sS'burying'
p3287
I1
sS'exerted'
p3288
I1
sS'culture'
p3289
I2
sS'depends'
p3290
I7
sS'decided'
p3291
I27
sS'changes'
p3292
I1
sS'foppery'
p3293
I1
sS'outward'
p3294
I5
sS'goddard'
p3295
I59
sS'subject'
p3296
I97
sS'custard'
p3297
I1
sS'knocked'
p3298
I2
sS'receipt'
p3299
I1
sS'spirits'
p3300
I64
sS'wording'
p3301
I1
sS'pattern'
p3302
I5
sS'missing'
p3303
I3
sS'worship'
p3304
I1
sS'colours'
p3305
I3
sS'written'
p3306
I24
sS'various'
p3307
I6
sS'cellery'
p3308
I1
sS'between'
p3309
I73
sS'neither'
p3310
I38
sS'reading'
p3311
I15
sS'dryness'
p3312
I1
sS'knowing'
p3313
I26
sS'stoutly'
p3314
I1
sS'crayons'
p3315
I1
sS'brewing'
p3316
I1
sS'perusal'
p3317
I1
sS'opening'
p3318
I15
sS'roundly'
p3319
I1
sS'durable'
p3320
I1
sS'deliver'
p3321
I1
sS'however'
p3322
I131
sS'fidgets'
p3323
I1
sS'clayton'
p3324
I1
sS'succeed'
p3325
I5
sS'avenues'
p3326
I1
sS'article'
p3327
I5
sS'puzzled'
p3328
I3
sS'contend'
p3329
I1
sS'grieved'
p3330
I8
sS'improve'
p3331
I7
sS'oppress'
p3332
I1
sS'exclaim'
p3333
I6
sS'figured'
p3334
I1
sS'instant'
p3335
I8
sS'reverse'
p3336
I4
sS'riddles'
p3337
I2
sS'disdain'
p3338
I4
sS'secrets'
p3339
I1
sS'country'
p3340
I24
sS'invited'
p3341
I15
sS'against'
p3342
I46
sS'resided'
p3343
I1
sS'grudged'
p3344
I1
sS'figures'
p3345
I1
sS'planned'
p3346
I2
sS'bristol'
p3347
I8
sS'exceeds'
p3348
I1
sS'passing'
p3349
I19
sS'expense'
p3350
I7
sS'approve'
p3351
I7
sS'invites'
p3352
I1
sS'grounds'
p3353
I10
sS'comment'
p3354
I1
sS'cooling'
p3355
I1
sS'madness'
p3356
I5
sS'rubbers'
p3357
I1
sS'womanly'
p3358
I1
sS'bearing'
p3359
I3
sS'reasons'
p3360
I2
sS'dispose'
p3361
I1
sS'tuesday'
p3362
I7
sS'manners'
p3363
I53
sS'seizure'
p3364
I2
sS'commend'
p3365
I1
sS'fashion'
p3366
I5
sS'routine'
p3367
I1
sS'worldly'
p3368
I1
sS'village'
p3369
I2
sS'respect'
p3370
I43
sS'prodigy'
p3371
I2
sS'dutiful'
p3372
I1
sS'clifton'
p3373
I1
sS'decline'
p3374
I2
sS'hawkins'
p3375
I19
sS'stating'
p3376
I1
sS'renting'
p3377
I1
sS'capable'
p3378
I6
sS'stretch'
p3379
I2
sS'thanked'
p3380
I7
sS'heroism'
p3381
I2
sS'quickly'
p3382
I7
sS'immense'
p3383
I2
sS'attends'
p3384
I1
sS'motives'
p3385
I6
sS'judging'
p3386
I11
sS'harbour'
p3387
I1
sS'combine'
p3388
I1
sS'entered'
p3389
I24
sS'kitchen'
p3390
I2
sS'meeting'
p3391
I39
sS'refuted'
p3392
I1
sS'entitle'
p3393
I1
sS'measles'
p3394
I4
sS'offered'
p3395
I8
sS'climate'
p3396
I1
sS'affixed'
p3397
I1
sS'softest'
p3398
I1
sS'modesty'
p3399
I1
sS'observe'
p3400
I23
sS'confers'
p3401
I1
sS'hateful'
p3402
I1
sS'folding'
p3403
I1
sS'careful'
p3404
I5
sS'chatter'
p3405
I1
sS'diffuse'
p3406
I1
sS'present'
p3407
I89
sS'asunder'
p3408
I2
sS'applied'
p3409
I3
sS'wearied'
p3410
I1
sS'sounded'
p3411
I1
sS'bateses'
p3412
I5
sS'fearful'
p3413
I5
sS'clearer'
p3414
I3
sS'players'
p3415
I1
sS'augusta'
p3416
I4
sS'conceit'
p3417
I6
sS'readier'
p3418
I1
sS'suppose'
p3419
I81
sS'pressed'
p3420
I9
sS'leaning'
p3421
I2
sS'endured'
p3422
I7
sS'useless'
p3423
I1
sS'mistake'
p3424
I16
sS'studied'
p3425
I2
sS'debased'
p3426
I1
sS'audibly'
p3427
I1
sS'vaunted'
p3428
I1
sS'sincere'
p3429
I5
sS'dictate'
p3430
I1
sS'engaged'
p3431
I38
sS'hurting'
p3432
I1
sS'dubious'
p3433
I1
sS'mortals'
p3434
I1
sS'couplet'
p3435
I1
sS'hearted'
p3436
I13
sS'partner'
p3437
I11
sS'scouted'
p3438
I1
sS'engages'
p3439
I1
sS'fellows'
p3440
I1
sS'trusted'
p3441
I9
sS'sucking'
p3442
I1
sS'twofold'
p3443
I1
sS'workmen'
p3444
I1
sS'bilious'
p3445
I3
sS'drawers'
p3446
I1
sS'perhaps'
p3447
I99
sS'tremble'
p3448
I2
sS'granted'
p3449
I5
sS'demands'
p3450
I2
sS'shorten'
p3451
I1
sS'butcher'
p3452
I2
sS'clearly'
p3453
I3
sS'romance'
p3454
I2
sS'respite'
p3455
I1
sS'strange'
p3456
I14
sS'inquiry'
p3457
I12
sS'harmony'
p3458
I2
sS'copying'
p3459
I1
sS'largest'
p3460
I1
sS'monarch'
p3461
I3
sS'liberal'
p3462
I10
sS'several'
p3463
I8
sS'injured'
p3464
I4
sS'closest'
p3465
I2
sS'mildest'
p3466
I1
sS'refusal'
p3467
I5
sS'glossed'
p3468
I1
sS'censure'
p3469
I6
sS'greeted'
p3470
I1
sS'delight'
p3471
I21
sS'persons'
p3472
I11
sS'running'
p3473
I4
sS'arrived'
p3474
I18
sS'purpose'
p3475
I23
sS'sisters'
p3476
I12
sS'italian'
p3477
I1
sS'totally'
p3478
I15
sS'poultry'
p3479
I2
sS'longing'
p3480
I4
sS'prosing'
p3481
I1
sS'shortly'
p3482
I5
sS'earnest'
p3483
I8
sS'charges'
p3484
I1
sS'doleful'
p3485
I1
sS'failing'
p3486
I2
sS'neptune'
p3487
I1
sS'recital'
p3488
I1
sS'bailiff'
p3489
I1
sS'thought'
p3490
I226
sS'without'
p3491
I214
sS'command'
p3492
I22
sS'english'
p3493
I8
sS'quitted'
p3494
I9
sS'musical'
p3495
I14
sS'grossly'
p3496
I1
sS'justify'
p3497
I2
sS'honesty'
p3498
I1
sS'restore'
p3499
I4
sS'wedging'
p3500
I1
sS'appease'
p3501
I1
sS'alluded'
p3502
I2
sS'moments'
p3503
I12
sS'warmest'
p3504
I8
sS'secrecy'
p3505
I3
sS'verdure'
p3506
I1
sS'actions'
p3507
I1
sS'risking'
p3508
I1
sS'sources'
p3509
I2
sS'violent'
p3510
I2
sS'audible'
p3511
I1
sS'distant'
p3512
I10
sS'farther'
p3513
I44
sS'surpass'
p3514
I2
sS'roasted'
p3515
I1
sS'foresee'
p3516
I3
sS'reality'
p3517
I2
sS'letting'
p3518
I3
sS'ushered'
p3519
I2
sS'renewed'
p3520
I3
sS'console'
p3521
I1
sS'excites'
p3522
I1
sS'throats'
p3523
I1
sS'pillars'
p3524
I1
sS'belongs'
p3525
I2
sS'parents'
p3526
I4
sS'beloved'
p3527
I9
sS'citizen'
p3528
I1
sS'reproof'
p3529
I3
sS'pitiful'
p3530
I2
sS'matched'
p3531
I1
sS'warrant'
p3532
I2
sS'excited'
p3533
I6
sS'divided'
p3534
I4
sS'kingdom'
p3535
I4
sS'victims'
p3536
I1
sS'boasted'
p3537
I4
sS'offence'
p3538
I8
sS'follies'
p3539
I1
sS'crushed'
p3540
I1
sS'matters'
p3541
I10
sS'traffic'
p3542
I1
sS'baskets'
p3543
I1
sS'presume'
p3544
I10
sS'destroy'
p3545
I4
sS'imposed'
p3546
I2
sS'enigmas'
p3547
I1
sS'saffron'
p3548
I1
sS'scruple'
p3549
I11
sS'dignity'
p3550
I5
sS'swelled'
p3551
I1
sS'fortune'
p3552
I39
sS'success'
p3553
I11
sS'uncivil'
p3554
I1
sS'gossips'
p3555
I1
sS'twisted'
p3556
I1
sS'seaside'
p3557
I1
sS'engross'
p3558
I1
sS'collect'
p3559
I3
sS'benefit'
p3560
I5
sS'offices'
p3561
I3
sS'officer'
p3562
I1
sS'nephews'
p3563
I4
sS'popular'
p3564
I1
sS'foolish'
p3565
I9
sS'healthy'
p3566
I3
sS'wonders'
p3567
I3
sS'decease'
p3568
I2
sS'because'
p3569
I53
sS'confide'
p3570
I1
sS'exposed'
p3571
I4
sS'obliged'
p3572
I76
sS'fathers'
p3573
I2
sS'spheres'
p3574
I1
sS'glances'
p3575
I1
sS'somehow'
p3576
I5
sS'elderly'
p3577
I2
sS'certain'
p3578
I27
sS'huswife'
p3579
I2
sS'amiable'
p3580
I35
sS'oftener'
p3581
I4
sS'drizzle'
p3582
I1
sS'library'
p3583
I1
sS'civilly'
p3584
I2
sS'happens'
p3585
I1
sS'direful'
p3586
I1
sS'stables'
p3587
I2
sS'footing'
p3588
I3
sS'novelty'
p3589
I2
sS'langham'
p3590
I1
sS'pudding'
p3591
I1
sS'shelter'
p3592
I2
sS'passion'
p3593
I8
sS'imputed'
p3594
I2
sS'screwed'
p3595
I1
sS'nodding'
p3596
I5
sS'seduced'
p3597
I1
sS'forgets'
p3598
I1
sS'patient'
p3599
I3
sS'seconds'
p3600
I1
sS'inspect'
p3601
I1
sS'unusual'
p3602
I5
sS'refused'
p3603
I10
sS'dropped'
p3604
I1
sS'incline'
p3605
I2
sS'nowhere'
p3606
I2
sS'scolded'
p3607
I2
sS'beneath'
p3608
I3
sS'handled'
p3609
I1
sS'chapter'
p3610
I56
sS'helping'
p3611
I1
sS'acquire'
p3612
I1
sS'subdued'
p3613
I4
sS'shewing'
p3614
I9
sS'carried'
p3615
I5
sS'getting'
p3616
I16
sS'conceal'
p3617
I9
sS'freedom'
p3618
I3
sS'posture'
p3619
I1
sS'powered'
p3620
I2
sS'accepts'
p3621
I1
sS'merited'
p3622
I1
sS'enliven'
p3623
I1
sS'carries'
p3624
I1
sS'despair'
p3625
I5
sS'militia'
p3626
I2
sS'greatly'
p3627
I7
sS'fancies'
p3628
I1
sS'blocked'
p3629
I1
sS'puppies'
p3630
I1
sS'efforts'
p3631
I1
sS'glasses'
p3632
I2
sS'tupmans'
p3633
I1
sS'silence'
p3634
I20
sS'quietly'
p3635
I9
sS'thinner'
p3636
I1
sS'letters'
p3637
I39
sS'follows'
p3638
I1
sS'subside'
p3639
I2
sS'errands'
p3640
I1
sS'blessed'
p3641
I7
sS'remarks'
p3642
I1
sS'weather'
p3643
I40
sS'promise'
p3644
I21
sS'parties'
p3645
I27
sS'drifted'
p3646
I1
sS'refined'
p3647
I3
sS'utility'
p3648
I1
sS'existed'
p3649
I1
sS'cleared'
p3650
I4
sS'rejoice'
p3651
I6
sS'prepare'
p3652
I2
sS'renewal'
p3653
I3
sS'support'
p3654
I8
sS'placing'
p3655
I3
sS'hazards'
p3656
I1
sS'parsnip'
p3657
I1
sS'noticed'
p3658
I1
sS'stealth'
p3659
I1
sS'winning'
p3660
I1
sS'flatter'
p3661
I5
sS'forward'
p3662
I36
sS'aimable'
p3663
I1
sS'doating'
p3664
I2
sS'forbade'
p3665
I1
sS'western'
p3666
I1
sS'himself'
p3667
I146
sS'ireland'
p3668
I14
sS'forming'
p3669
I10
sS'dangers'
p3670
I2
sS'pitcher'
p3671
I1
sS'delayed'
p3672
I3
sS'strikes'
p3673
I3
sS'blaming'
p3674
I1
sS'failure'
p3675
I2
sS'talents'
p3676
I8
sS'related'
p3677
I4
sS'curtain'
p3678
I1
sS'cottage'
p3679
I6
sS'coldest'
p3680
I1
sS'highest'
p3681
I11
sS'flirted'
p3682
I1
sS'thanker'
p3683
I1
sS'raising'
p3684
I3
sS'evinced'
p3685
I1
sS'charmed'
p3686
I1
sS'counsel'
p3687
I4
sS'october'
p3688
I4
sS'flavour'
p3689
I1
sS'evident'
p3690
I8
sS'chained'
p3691
I1
sS'whether'
p3692
I64
sS'bargain'
p3693
I2
sS'stories'
p3694
I1
sS'confine'
p3695
I1
sS'heiress'
p3696
I1
sS'schemed'
p3697
I1
sS'classed'
p3698
I1
sS'minutes'
p3699
I53
sS'display'
p3700
I3
sS'cordial'
p3701
I5
sS'ordered'
p3702
I10
sS'defined'
p3703
I1
sS'whisper'
p3704
I6
sS'accents'
p3705
I1
sS'doubled'
p3706
I1
sS'watches'
p3707
I1
sS'general'
p3708
I65
sS'scarlet'
p3709
I1
sS'examine'
p3710
I2
sS'guessed'
p3711
I7
sS'periods'
p3712
I1
sS'curious'
p3713
I3
sS'watched'
p3714
I8
sS'prevail'
p3715
I4
sS'denying'
p3716
I7
sS'surmise'
p3717
I4
sS'tedious'
p3718
I1
sS'selfish'
p3719
I5
sS'marking'
p3720
I3
sS'avoided'
p3721
I4
sS'beaming'
p3722
I1
sS'pensive'
p3723
I1
sS'excused'
p3724
I3
sS'variety'
p3725
I5
sS'deserve'
p3726
I21
sS'adoring'
p3727
I1
sS'invalid'
p3728
I4
sS'thither'
p3729
I4
sS'uttered'
p3730
I1
sS'excuses'
p3731
I8
sS'setting'
p3732
I9
sS'conduce'
p3733
I2
sS'holding'
p3734
I1
sS'chamber'
p3735
I2
sS'retract'
p3736
I3
sS'enemies'
p3737
I1
sS'ribbons'
p3738
I1
sS'upstart'
p3739
I2
sS'gaining'
p3740
I2
sS'picture'
p3741
I22
sS'briefly'
p3742
I1
sS'oneself'
p3743
I2
sS'suppers'
p3744
I2
sS'draught'
p3745
I5
sS'welcome'
p3746
I16
sS'bravado'
p3747
I1
sS'william'
p3748
I22
sS'meaning'
p3749
I36
sS'journey'
p3750
I12
sS'bounded'
p3751
I1
sS'inroads'
p3752
I1
sS'flushed'
p3753
I1
sS'prudent'
p3754
I3
sS'friends'
p3755
I82
sS'heroine'
p3756
I1
sS'younger'
p3757
I2
sS'suffers'
p3758
I1
sS'happier'
p3759
I11
sS'apology'
p3760
I5
sS'insipid'
p3761
I1
sS'confirm'
p3762
I1
sS'parcels'
p3763
I3
sS'entreat'
p3764
I11
sS'portion'
p3765
I3
sS'implied'
p3766
I4
sS'stilton'
p3767
I1
sS'doubted'
p3768
I9
sS'serious'
p3769
I31
sS'joining'
p3770
I2
sS'gardens'
p3771
I7
sS'profits'
p3772
I2
sa(dp3773
S'secondly'
p3774
I1
sS'befriend'
p3775
I1
sS'consider'
p3776
I40
sS'pointing'
p3777
I1
sS'rudeness'
p3778
I1
sS'cheerful'
p3779
I29
sS'sixpence'
p3780
I1
sS'grateful'
p3781
I15
sS'appetite'
p3782
I2
sS'shrugged'
p3783
I1
sS'children'
p3784
I60
sS'luxuries'
p3785
I1
sS'dreadful'
p3786
I19
sS'regained'
p3787
I1
sS'reproofs'
p3788
I1
sS'eligible'
p3789
I4
sS'nineteen'
p3790
I1
sS'sweetest'
p3791
I2
sS'bordered'
p3792
I2
sS'dumpling'
p3793
I1
sS'presents'
p3794
I2
sS'answered'
p3795
I22
sS'rejoined'
p3796
I2
sS'excluded'
p3797
I3
sS'dressing'
p3798
I1
sS'teaching'
p3799
I1
sS'suffered'
p3800
I12
sS'pleasing'
p3801
I22
sS'friendly'
p3802
I18
sS'controul'
p3803
I1
sS'merchant'
p3804
I1
sS'division'
p3805
I3
sS'fatigues'
p3806
I2
sS'returned'
p3807
I39
sS'dispense'
p3808
I2
sS'plaister'
p3809
I9
sS'pondered'
p3810
I3
sS'prudence'
p3811
I5
sS'coloured'
p3812
I2
sS'workbags'
p3813
I1
sS'felicity'
p3814
I10
sS'fatigued'
p3815
I4
sS'softened'
p3816
I5
sS'thriving'
p3817
I1
sS'drinking'
p3818
I5
sS'bringing'
p3819
I11
sS'banished'
p3820
I2
sS'conceive'
p3821
I6
sS'gaieties'
p3822
I1
sS'covering'
p3823
I1
sS'encroach'
p3824
I1
sS'melodies'
p3825
I1
sS'comforts'
p3826
I8
sS'dwindled'
p3827
I1
sS'cherries'
p3828
I1
sS'preached'
p3829
I1
sS'tolerate'
p3830
I3
sS'weddings'
p3831
I1
sS'discover'
p3832
I4
sS'absences'
p3833
I1
sS'persuade'
p3834
I14
sS'displays'
p3835
I2
sS'helpless'
p3836
I2
sS'situated'
p3837
I1
sS'expenses'
p3838
I1
sS'auspices'
p3839
I1
sS'distaste'
p3840
I1
sS'abundant'
p3841
I1
sS'appeased'
p3842
I2
sS'desirous'
p3843
I2
sS'assisted'
p3844
I5
sS'reaching'
p3845
I4
sS'supplied'
p3846
I5
sS'richmond'
p3847
I13
sS'escorted'
p3848
I2
sS'weighing'
p3849
I1
sS'pleading'
p3850
I2
sS'embodied'
p3851
I1
sS'standers'
p3852
I1
sS'exercise'
p3853
I17
sS'movement'
p3854
I1
sS'escaping'
p3855
I1
sS'exchange'
p3856
I2
sS'sobering'
p3857
I1
sS'breeding'
p3858
I2
sS'subsided'
p3859
I1
sS'hundreds'
p3860
I1
sS'youngest'
p3861
I4
sS'promoted'
p3862
I4
sS'humility'
p3863
I1
sS'dissuade'
p3864
I3
sS'november'
p3865
I5
sS'standard'
p3866
I1
sS'ordinary'
p3867
I2
sS'obtained'
p3868
I5
sS'fourteen'
p3869
I2
sS'speeches'
p3870
I4
sS'property'
p3871
I6
sS'daughter'
p3872
I62
sS'involved'
p3873
I6
sS'inspired'
p3874
I1
sS'ridicule'
p3875
I1
sS'wherever'
p3876
I7
sS'commonly'
p3877
I1
sS'suppress'
p3878
I1
sS'military'
p3879
I1
sS'suitable'
p3880
I4
sS'intrigue'
p3881
I1
sS'ventured'
p3882
I6
sS'composed'
p3883
I6
sS'reckoned'
p3884
I3
sS'assorted'
p3885
I1
sS'prosings'
p3886
I1
sS'insolent'
p3887
I4
sS'saunders'
p3888
I1
sS'tenderer'
p3889
I1
sS'suddenly'
p3890
I5
sS'politest'
p3891
I1
sS'solitude'
p3892
I3
sS'feelings'
p3893
I102
sS'patience'
p3894
I11
sS'regiment'
p3895
I1
sS'counsels'
p3896
I1
sS'sanction'
p3897
I4
sS'estimate'
p3898
I2
sS'desiring'
p3899
I2
sS'standing'
p3900
I25
sS'literary'
p3901
I1
sS'overhear'
p3902
I1
sS'distinct'
p3903
I10
sS'positive'
p3904
I4
sS'watering'
p3905
I3
sS'examined'
p3906
I2
sS'negative'
p3907
I1
sS'irritate'
p3908
I2
sS'assuring'
p3909
I2
sS'wavering'
p3910
I2
sS'bitterly'
p3911
I2
sS'ripening'
p3912
I1
sS'obstacle'
p3913
I1
sS'acrostic'
p3914
I1
sS'lessened'
p3915
I2
sS'intently'
p3916
I4
sS'lowering'
p3917
I1
sS'wretched'
p3918
I12
sS'assailed'
p3919
I1
sS'feigning'
p3920
I1
sS'inclined'
p3921
I6
sS'apparent'
p3922
I10
sS'highbury'
p3923
I125
sS'occurred'
p3924
I18
sS'charming'
p3925
I32
sS'dealings'
p3926
I2
sS'opposing'
p3927
I6
sS'ignorant'
p3928
I9
sS'wretches'
p3929
I1
sS'draughts'
p3930
I2
sS'announce'
p3931
I7
sS'circular'
p3932
I1
sS'demerits'
p3933
I1
sS'striving'
p3934
I2
sS'inclines'
p3935
I1
sS'presumed'
p3936
I5
sS'enjoying'
p3937
I4
sS'anything'
p3938
I1
sS'avoiding'
p3939
I5
sS'refusing'
p3940
I2
sS'inflamed'
p3941
I1
sS'believes'
p3942
I1
sS'offended'
p3943
I5
sS'anywhere'
p3944
I16
sS'servants'
p3945
I14
sS'blooming'
p3946
I1
sS'believed'
p3947
I46
sS'mustered'
p3948
I1
sS'detached'
p3949
I1
sS'scramble'
p3950
I2
sS'enscombe'
p3951
I36
sS'vanities'
p3952
I1
sS'parishes'
p3953
I2
sS'reserved'
p3954
I9
sS'unmarked'
p3955
I1
sS'december'
p3956
I4
sS'coolness'
p3957
I1
sS'infantry'
p3958
I1
sS'confused'
p3959
I4
sS'mermaids'
p3960
I1
sS'unbiased'
p3961
I1
sS'reserves'
p3962
I1
sS'fanciful'
p3963
I3
sS'eligibly'
p3964
I1
sS'disliked'
p3965
I1
sS'clothing'
p3966
I1
sS'absolute'
p3967
I4
sS'ceremony'
p3968
I7
sS'hesitate'
p3969
I4
sS'recovery'
p3970
I1
sS'mutually'
p3971
I3
sS'breaking'
p3972
I3
sS'pressing'
p3973
I6
sS'helpmate'
p3974
I1
sS'trophies'
p3975
I1
sS'foreseen'
p3976
I6
sS'thanking'
p3977
I3
sS'failures'
p3978
I1
sS'disgrace'
p3979
I2
sS'explains'
p3980
I1
sS'creature'
p3981
I39
sS'especial'
p3982
I1
sS'maternal'
p3983
I1
sS'intended'
p3984
I16
sS'ballroom'
p3985
I4
sS'singular'
p3986
I1
sS'anecdote'
p3987
I1
sS'delicacy'
p3988
I16
sS'attained'
p3989
I1
sS'interior'
p3990
I1
sS'explored'
p3991
I1
sS'destined'
p3992
I4
sS'footpath'
p3993
I3
sS'appealed'
p3994
I2
sS'revealed'
p3995
I2
sS'wainscot'
p3996
I2
sS'trifling'
p3997
I9
sS'purchase'
p3998
I6
sS'released'
p3999
I1
sS'remember'
p4000
I48
sS'objected'
p4001
I2
sS'whenever'
p4002
I28
sS'deranged'
p4003
I1
sS'yielding'
p4004
I1
sS'emotions'
p4005
I2
sS'deserted'
p4006
I2
sS'renewing'
p4007
I2
sS'maintain'
p4008
I4
sS'honestly'
p4009
I3
sS'glancing'
p4010
I5
sS'holidays'
p4011
I1
sS'pleasure'
p4012
I115
sS'curtseys'
p4013
I1
sS'lamented'
p4014
I2
sS'unsteady'
p4015
I1
sS'excepted'
p4016
I2
sS'captious'
p4017
I2
sS'beauties'
p4018
I3
sS'produces'
p4019
I1
sS'welcomed'
p4020
I4
sS'footstep'
p4021
I2
sS'availing'
p4022
I1
sS'midnight'
p4023
I1
sS'doubtful'
p4024
I9
sS'produced'
p4025
I14
sS'alacrity'
p4026
I3
sS'attitude'
p4027
I3
sS'alliance'
p4028
I7
sS'comtesse'
p4029
I1
sS'omitting'
p4030
I1
sS'pollards'
p4031
I1
sS'rewarded'
p4032
I1
sS'tendency'
p4033
I4
sS'superior'
p4034
I59
sS'broiling'
p4035
I1
sS'personal'
p4036
I7
sS'properer'
p4037
I1
sS'troubles'
p4038
I2
sS'vicinity'
p4039
I1
sS'actually'
p4040
I29
sS'symptoms'
p4041
I7
sS'harmless'
p4042
I3
sS'detected'
p4043
I3
sS'restrain'
p4044
I3
sS'spacious'
p4045
I1
sS'pitiable'
p4046
I2
sS'antidote'
p4047
I1
sS'overcome'
p4048
I9
sS'happened'
p4049
I27
sS'modestly'
p4050
I1
sS'somebody'
p4051
I16
sS'listener'
p4052
I1
sS'weakness'
p4053
I2
sS'material'
p4054
I12
sS'noticing'
p4055
I3
sS'divested'
p4056
I1
sS'touching'
p4057
I2
sS'shameful'
p4058
I3
sS'ambition'
p4059
I2
sS'arriving'
p4060
I5
sS'epithets'
p4061
I1
sS'kindness'
p4062
I40
sS'twilight'
p4063
I1
sS'complain'
p4064
I4
sS'slighted'
p4065
I6
sS'outweigh'
p4066
I1
sS'articles'
p4067
I1
sS'february'
p4068
I7
sS'erection'
p4069
I1
sS'likeness'
p4070
I21
sS'feverish'
p4071
I1
sS'preclude'
p4072
I1
sS'betweens'
p4073
I1
sS'repulsed'
p4074
I1
sS'careless'
p4075
I3
sS'whispers'
p4076
I1
sS'diffuses'
p4077
I1
sS'entirely'
p4078
I39
sS'residing'
p4079
I2
sS'vexation'
p4080
I6
sS'concerts'
p4081
I1
sS'sketches'
p4082
I2
sS'afforded'
p4083
I8
sS'preceded'
p4084
I1
sS'prompted'
p4085
I4
sS'needless'
p4086
I3
sS'stooping'
p4087
I3
sS'gilberts'
p4088
I1
sS'pursuits'
p4089
I2
sS'engaging'
p4090
I7
sS'surprize'
p4091
I37
sS'catching'
p4092
I5
sS'thirteen'
p4093
I2
sS'entering'
p4094
I8
sS'infinity'
p4095
I1
sS'steadier'
p4096
I1
sS'indulged'
p4097
I4
sS'saturday'
p4098
I7
sS'minority'
p4099
I1
sS'respects'
p4100
I6
sS'overcame'
p4101
I1
sS'unclosed'
p4102
I1
sS'wondered'
p4103
I4
sS'disgusts'
p4104
I1
sS'sufficed'
p4105
I2
sS'increase'
p4106
I13
sS'rational'
p4107
I18
sS'medicine'
p4108
I1
sS'surprise'
p4109
I1
sS'tiresome'
p4110
I8
sS'languish'
p4111
I1
sS'sluggish'
p4112
I1
sS'plotting'
p4113
I1
sS'attended'
p4114
I9
sS'umbrella'
p4115
I1
sS'exterior'
p4116
I1
sS'drifting'
p4117
I1
sS'tyrannic'
p4118
I1
sS'mourning'
p4119
I2
sS'pleasant'
p4120
I41
sS'chapters'
p4121
I1
sS'struggle'
p4122
I2
sS'forcibly'
p4123
I2
sS'equipped'
p4124
I1
sS'mistress'
p4125
I11
sS'earliest'
p4126
I1
sS'reproach'
p4127
I9
sS'enormous'
p4128
I1
sS'overtake'
p4129
I1
sS'retained'
p4130
I1
sS'surmises'
p4131
I1
sS'language'
p4132
I9
sS'penknife'
p4133
I1
sS'deprived'
p4134
I1
sS'disperse'
p4135
I1
sS'kingdoms'
p4136
I1
sS'feasible'
p4137
I2
sS'cheering'
p4138
I2
sS'birthday'
p4139
I1
sS'serenity'
p4140
I1
sS'tempting'
p4141
I1
sS'transfer'
p4142
I2
sS'loudness'
p4143
I1
sS'frequent'
p4144
I8
sS'starting'
p4145
I1
sS'indebted'
p4146
I4
sS'embraces'
p4147
I1
sS'dwelling'
p4148
I1
sS'features'
p4149
I7
sS'forwards'
p4150
I2
sS'striking'
p4151
I4
sS'jealousy'
p4152
I5
sS'powerful'
p4153
I5
sS'declared'
p4154
I7
sS'yourself'
p4155
I56
sS'sympathy'
p4156
I5
sS'featured'
p4157
I1
sS'murmured'
p4158
I1
sS'directly'
p4159
I51
sS'palpable'
p4160
I1
sS'scissors'
p4161
I1
sS'farthest'
p4162
I2
sS'asperity'
p4163
I1
sS'insisted'
p4164
I2
sS'shilling'
p4165
I2
sS'indicate'
p4166
I1
sS'infamous'
p4167
I1
sS'hindered'
p4168
I1
sS'smoothed'
p4169
I2
sS'speaking'
p4170
I46
sS'headache'
p4171
I4
sS'invalids'
p4172
I1
sS'ladylike'
p4173
I1
sS'solemnly'
p4174
I1
sS'vigorous'
p4175
I1
sS'relieved'
p4176
I5
sS'relative'
p4177
I5
sS'lavished'
p4178
I1
sS'rejected'
p4179
I4
sS'solidity'
p4180
I1
sS'outgrown'
p4181
I1
sS'unpretty'
p4182
I1
sS'somewhat'
p4183
I4
sS'purposes'
p4184
I1
sS'imposing'
p4185
I1
sS'flattery'
p4186
I4
sS'peculiar'
p4187
I7
sS'boarding'
p4188
I1
sS'distance'
p4189
I25
sS'supposes'
p4190
I1
sS'untoward'
p4191
I1
sS'resemble'
p4192
I1
sS'spirited'
p4193
I3
sS'joyfully'
p4194
I1
sS'alluding'
p4195
I2
sS'marriage'
p4196
I35
sS'supposed'
p4197
I35
sS'insulted'
p4198
I1
sS'barouche'
p4199
I7
sS'seminary'
p4200
I1
sS'devotion'
p4201
I2
sS'enclosed'
p4202
I1
sS'prospect'
p4203
I13
sS'deciding'
p4204
I1
sS'dawdling'
p4205
I1
sS'broadway'
p4206
I1
sS'thwarted'
p4207
I1
sS'remained'
p4208
I17
sS'classing'
p4209
I1
sS'trusting'
p4210
I3
sS'casement'
p4211
I1
sS'fireside'
p4212
I4
sS'suspense'
p4213
I6
sS'unlikely'
p4214
I4
sS'portrait'
p4215
I1
sS'impelled'
p4216
I1
sS'impudent'
p4217
I2
sS'regulate'
p4218
I1
sS'occupied'
p4219
I16
sS'contents'
p4220
I1
sS'hitherto'
p4221
I8
sS'praising'
p4222
I1
sS'strength'
p4223
I13
sS'sagacity'
p4224
I1
sS'mourners'
p4225
I1
sS'scotland'
p4226
I1
sS'thorough'
p4227
I12
sS'instance'
p4228
I9
sS'emphasis'
p4229
I1
sS'concerns'
p4230
I9
sS'provoked'
p4231
I3
sS'populous'
p4232
I2
sS'greatest'
p4233
I29
sS'province'
p4234
I1
sS'lodgings'
p4235
I1
sS'weymouth'
p4236
I17
sS'opposite'
p4237
I7
sS'syllable'
p4238
I10
sS'approves'
p4239
I1
sS'measures'
p4240
I2
sS'compress'
p4241
I1
sS'visitors'
p4242
I5
sS'courtesy'
p4243
I2
sS'hopeless'
p4244
I1
sS'perforce'
p4245
I1
sS'lectured'
p4246
I1
sS'services'
p4247
I1
sS'capacity'
p4248
I1
sS'measured'
p4249
I1
sS'approved'
p4250
I6
sS'morality'
p4251
I1
sS'pembroke'
p4252
I1
sS'goodwill'
p4253
I5
sS'sweeping'
p4254
I1
sS'prevails'
p4255
I1
sS'seconded'
p4256
I1
sS'stronger'
p4257
I8
sS'inferred'
p4258
I4
sS'calmness'
p4259
I6
sS'clearing'
p4260
I2
sS'occasion'
p4261
I28
sS'trembled'
p4262
I1
sS'nobility'
p4263
I1
sS'quantity'
p4264
I4
sS'currants'
p4265
I1
sS'pardoned'
p4266
I1
sS'vagaries'
p4267
I1
sS'rambling'
p4268
I1
sS'frighten'
p4269
I1
sS'swelling'
p4270
I2
sS'meetings'
p4271
I6
sS'imagines'
p4272
I1
sS'demurred'
p4273
I1
sS'eyebrows'
p4274
I2
sS'defended'
p4275
I1
sS'attempts'
p4276
I6
sS'planning'
p4277
I3
sS'relation'
p4278
I1
sS'drawings'
p4279
I4
sS'imagined'
p4280
I20
sS'partners'
p4281
I1
sS'depended'
p4282
I8
sS'securing'
p4283
I3
sS'guidance'
p4284
I1
sS'treasure'
p4285
I3
sS'chancing'
p4286
I1
sS'upstairs'
p4287
I1
sS'brighter'
p4288
I2
sS'quickest'
p4289
I3
sS'pursuing'
p4290
I2
sS'heartily'
p4291
I6
sS'employed'
p4292
I9
sS'adequate'
p4293
I1
sS'caroline'
p4294
I1
sS'wilfully'
p4295
I1
sS'inferior'
p4296
I17
sS'borrowed'
p4297
I2
sS'shepherd'
p4298
I1
sS'rejoiced'
p4299
I3
sS'listened'
p4300
I16
sS'watching'
p4301
I8
sS'familiar'
p4302
I3
sS'perceive'
p4303
I8
sS'imparted'
p4304
I2
sS'exulting'
p4305
I2
sS'valuable'
p4306
I9
sS'boastful'
p4307
I1
sS'probably'
p4308
I36
sS'applying'
p4309
I2
sS'happiest'
p4310
I7
sS'clearest'
p4311
I1
sS'randalls'
p4312
I90
sS'unbroken'
p4313
I1
sS'offences'
p4314
I2
sS'shopping'
p4315
I1
sS'numerous'
p4316
I3
sS'impolite'
p4317
I1
sS'quarrels'
p4318
I1
sS'contrast'
p4319
I5
sS'activity'
p4320
I4
sS'excesses'
p4321
I1
sS'replying'
p4322
I2
sS'linguist'
p4323
I1
sS'silently'
p4324
I1
sS'deceived'
p4325
I11
sS'guessing'
p4326
I5
sS'suckling'
p4327
I14
sS'omission'
p4328
I2
sS'unworthy'
p4329
I6
sS'allusion'
p4330
I3
sS'observer'
p4331
I2
sS'achieved'
p4332
I2
sS'acquired'
p4333
I3
sS'lawfully'
p4334
I1
sS'gladness'
p4335
I1
sS'observed'
p4336
I22
sS'tricking'
p4337
I1
sS'declares'
p4338
I3
sS'enhanced'
p4339
I1
sS'obliging'
p4340
I34
sS'recently'
p4341
I2
sS'despatch'
p4342
I2
sS'resigned'
p4343
I2
sS'declined'
p4344
I8
sS'hardship'
p4345
I3
sS'luckiest'
p4346
I3
sS'avowedly'
p4347
I1
sS'amounted'
p4348
I1
sS'surmised'
p4349
I2
sS'probable'
p4350
I6
sS'visiting'
p4351
I8
sS'unabated'
p4352
I1
sS'alarming'
p4353
I6
sS'ornament'
p4354
I1
sS'paternal'
p4355
I1
sS'grievous'
p4356
I1
sS'smallest'
p4357
I20
sS'horrible'
p4358
I5
sS'progress'
p4359
I9
sS'approach'
p4360
I7
sS'curtains'
p4361
I1
sS'failings'
p4362
I1
sS'preserve'
p4363
I3
sS'combated'
p4364
I1
sS'cleverer'
p4365
I3
sS'creating'
p4366
I6
sS'solitary'
p4367
I3
sS'fearless'
p4368
I1
sS'hurrying'
p4369
I9
sS'politics'
p4370
I1
sS'espalier'
p4371
I1
sS'specious'
p4372
I1
sS'defiance'
p4373
I2
sS'betrayed'
p4374
I6
sS'approval'
p4375
I2
sS'precious'
p4376
I8
sS'fluently'
p4377
I1
sS'absented'
p4378
I1
sS'caprices'
p4379
I1
sS'abruptly'
p4380
I5
sS'received'
p4381
I36
sS'commands'
p4382
I1
sS'accident'
p4383
I1
sS'improved'
p4384
I4
sS'extracts'
p4385
I2
sS'wounding'
p4386
I1
sS'demanded'
p4387
I1
sS'improves'
p4388
I1
sS'receives'
p4389
I2
sS'sunshine'
p4390
I1
sS'glorious'
p4391
I1
sS'detailed'
p4392
I1
sS'humoured'
p4393
I6
sS'haunting'
p4394
I1
sS'distress'
p4395
I19
sS'conclude'
p4396
I6
sS'appeared'
p4397
I49
sS'habitual'
p4398
I1
sS'whatever'
p4399
I20
sS'abhorred'
p4400
I1
sS'improper'
p4401
I4
sS'unfolded'
p4402
I1
sS'governed'
p4403
I2
sS'moreover'
p4404
I5
sS'lateness'
p4405
I1
sS'sensible'
p4406
I25
sS'addition'
p4407
I10
sS'overlook'
p4408
I3
sS'informed'
p4409
I5
sS'vacation'
p4410
I1
sS'trampers'
p4411
I1
sS'startled'
p4412
I1
sS'devoting'
p4413
I2
sS'combined'
p4414
I1
sS'interest'
p4415
I47
sS'misapply'
p4416
I1
sS'expected'
p4417
I40
sS'threaten'
p4418
I1
sS'proposal'
p4419
I10
sS'foretold'
p4420
I1
sS'delights'
p4421
I2
sS'astonish'
p4422
I1
sS'settling'
p4423
I4
sS'dialogue'
p4424
I2
sS'describe'
p4425
I8
sS'families'
p4426
I11
sS'efficacy'
p4427
I1
sS'silenced'
p4428
I3
sS'latterly'
p4429
I2
sS'thousand'
p4430
I16
sS'blessing'
p4431
I12
sS'environs'
p4432
I1
sS'uncommon'
p4433
I4
sS'argument'
p4434
I4
sS'finished'
p4435
I12
sS'tenderly'
p4436
I1
sS'recalled'
p4437
I2
sS'minister'
p4438
I1
sS'evasions'
p4439
I1
sS'resisted'
p4440
I2
sS'upstarts'
p4441
I1
sS'gracious'
p4442
I3
sS'isabella'
p4443
I69
sS'civility'
p4444
I10
sS'pretence'
p4445
I9
sS'wallises'
p4446
I1
sS'slippery'
p4447
I1
sS'teachers'
p4448
I3
sS'stopping'
p4449
I5
sS'pictures'
p4450
I2
sS'awakened'
p4451
I1
sS'animated'
p4452
I5
sS'mitchell'
p4453
I1
sS'coddling'
p4454
I1
sS'advising'
p4455
I2
sS'inherits'
p4456
I1
sS'secluded'
p4457
I1
sS'foretell'
p4458
I2
sS'palliate'
p4459
I1
sS'resident'
p4460
I1
sS'messages'
p4461
I1
sS'delusion'
p4462
I3
sS'contrive'
p4463
I4
sS'sleeping'
p4464
I5
sS'confound'
p4465
I1
sS'holyhead'
p4466
I1
sS'eighteen'
p4467
I4
sS'clinging'
p4468
I1
sS'raptures'
p4469
I5
sS'presides'
p4470
I1
sS'chambers'
p4471
I1
sS'affected'
p4472
I7
sS'throwing'
p4473
I1
sS'everyday'
p4474
I2
sS'memorial'
p4475
I1
sS'verified'
p4476
I1
sS'severity'
p4477
I1
sS'fetching'
p4478
I2
sS'alphabet'
p4479
I1
sS'reminded'
p4480
I3
sS'drawback'
p4481
I6
sS'agitated'
p4482
I10
sS'esteemed'
p4483
I3
sS'parlours'
p4484
I2
sS'joyously'
p4485
I1
sS'punctual'
p4486
I1
sS'grandeur'
p4487
I3
sS'entitled'
p4488
I3
sS'exertion'
p4489
I6
sS'puppyism'
p4490
I1
sS'secretly'
p4491
I2
sS'practice'
p4492
I3
sS'knitting'
p4493
I2
sS'palpably'
p4494
I3
sS'sickness'
p4495
I2
sS'theodore'
p4496
I1
sS'disagree'
p4497
I4
sS'reigning'
p4498
I1
sS'husbands'
p4499
I4
sS'consents'
p4500
I1
sS'cabinets'
p4501
I1
sS'delicate'
p4502
I10
sS'infinite'
p4503
I3
sS'changing'
p4504
I3
sS'terribly'
p4505
I2
sS'judgment'
p4506
I29
sS'thoughts'
p4507
I38
sS'puzzling'
p4508
I1
sS'scarcely'
p4509
I21
sS'recourse'
p4510
I1
sS'equalled'
p4511
I2
sS'coachmen'
p4512
I1
sS'dilatory'
p4513
I1
sS'coldness'
p4514
I7
sS'resuming'
p4515
I2
sS'scruples'
p4516
I10
sS'detained'
p4517
I7
sS'hardened'
p4518
I1
sS'realised'
p4519
I2
sS'opinions'
p4520
I9
sS'outlived'
p4521
I1
sS'idleness'
p4522
I1
sS'departed'
p4523
I1
sS'proposed'
p4524
I14
sS'sentence'
p4525
I4
sS'claiming'
p4526
I1
sS'domestic'
p4527
I7
sS'fancying'
p4528
I13
sS'mistaken'
p4529
I22
sS'quarters'
p4530
I2
sS'disguise'
p4531
I1
sS'mistakes'
p4532
I1
sS'elegance'
p4533
I16
sS'campbell'
p4534
I51
sS'followed'
p4535
I29
sS'injuries'
p4536
I1
sS'previous'
p4537
I9
sS'generous'
p4538
I4
sS'passable'
p4539
I2
sS'proudest'
p4540
I1
sS'worthies'
p4541
I1
sS'subduing'
p4542
I2
sS'thinking'
p4543
I60
sS'marrying'
p4544
I26
sS'regarded'
p4545
I4
sS'unbidden'
p4546
I1
sS'speedily'
p4547
I5
sS'subjects'
p4548
I11
sS'prisoner'
p4549
I1
sS'projects'
p4550
I1
sS'innocent'
p4551
I1
sS'contrary'
p4552
I8
sS'mournful'
p4553
I1
sS'practise'
p4554
I3
sS'diverted'
p4555
I2
sS'humanity'
p4556
I3
sS'trimming'
p4557
I2
sS'resolved'
p4558
I28
sS'checking'
p4559
I3
sS'advances'
p4560
I2
sS'specimen'
p4561
I1
sS'advocate'
p4562
I3
sS'possible'
p4563
I84
sS'gestures'
p4564
I1
sS'possibly'
p4565
I17
sS'discreet'
p4566
I3
sS'wearying'
p4567
I1
sS'clemency'
p4568
I1
sS'confined'
p4569
I11
sS'equality'
p4570
I4
sS'accepted'
p4571
I10
sS'advanced'
p4572
I3
sS'fondling'
p4573
I1
sS'shoulder'
p4574
I1
sS'stranger'
p4575
I5
sS'inviting'
p4576
I4
sS'resorted'
p4577
I1
sS'admitted'
p4578
I13
sS'distrust'
p4579
I2
sS'continue'
p4580
I11
sS'laughing'
p4581
I17
sS'prologue'
p4582
I1
sS'softness'
p4583
I3
sS'security'
p4584
I4
sS'disorder'
p4585
I3
sS'enviable'
p4586
I1
sS'errantry'
p4587
I1
sS'effusion'
p4588
I2
sS'attorney'
p4589
I1
sS'belonged'
p4590
I6
sS'creation'
p4591
I1
sS'tempered'
p4592
I10
sS'celibacy'
p4593
I1
sS'descried'
p4594
I1
sS'openness'
p4595
I3
sS'musician'
p4596
I2
sS'hazarded'
p4597
I2
sS'reviving'
p4598
I1
sS'rapidity'
p4599
I3
sS'urbanity'
p4600
I1
sS'provided'
p4601
I5
sS'asserted'
p4602
I2
sS'perverse'
p4603
I2
sS'humanely'
p4604
I1
sS'soothing'
p4605
I2
sS'decision'
p4606
I8
sS'timidity'
p4607
I1
sS'comments'
p4608
I1
sS'candidly'
p4609
I1
sS'critical'
p4610
I2
sS'honoured'
p4611
I5
sS'summoned'
p4612
I1
sS'assuming'
p4613
I4
sS'forgiven'
p4614
I5
sS'moderate'
p4615
I7
sS'quitting'
p4616
I5
sS'reticule'
p4617
I1
sS'clownish'
p4618
I2
sS'approver'
p4619
I1
sS'business'
p4620
I55
sS'intimate'
p4621
I10
sS'pressure'
p4622
I1
sS'poignant'
p4623
I2
sS'conveyed'
p4624
I10
sS'idolized'
p4625
I1
sS'although'
p4626
I1
sS'vivacity'
p4627
I2
sS'relating'
p4628
I2
sS'exciting'
p4629
I5
sS'dictated'
p4630
I1
sS'shocking'
p4631
I6
sS'fondness'
p4632
I2
sS'deriving'
p4633
I1
sS'cautious'
p4634
I7
sS'indolent'
p4635
I1
sS'deserved'
p4636
I10
sS'misspent'
p4637
I1
sS'biscuits'
p4638
I2
sS'industry'
p4639
I1
sS'violence'
p4640
I1
sS'deserves'
p4641
I6
sS'coachman'
p4642
I5
sS'scornful'
p4643
I1
sS'steadily'
p4644
I5
sS'slightly'
p4645
I3
sS'youthful'
p4646
I2
sS'counties'
p4647
I1
sS'fathomed'
p4648
I1
sS'rendered'
p4649
I7
sS'enduring'
p4650
I1
sS'formerly'
p4651
I5
sS'presence'
p4652
I4
sS'deafness'
p4653
I1
sS'conquest'
p4654
I2
sS'plainest'
p4655
I1
sS'nonsense'
p4656
I20
sS'thankful'
p4657
I5
sS'contract'
p4658
I1
sS'sneering'
p4659
I2
sS'accounts'
p4660
I4
sS'artifice'
p4661
I2
sS'ungenial'
p4662
I1
sS'restless'
p4663
I2
sS'behaving'
p4664
I3
sS'pastures'
p4665
I1
sS'shedding'
p4666
I1
sS'spending'
p4667
I5
sS'removing'
p4668
I3
sS'strictly'
p4669
I2
sS'question'
p4670
I39
sS'disposed'
p4671
I21
sS'dreaming'
p4672
I1
sS'endanger'
p4673
I1
sS'caresses'
p4674
I1
sS'heritage'
p4675
I1
sS'resulted'
p4676
I1
sS'oddities'
p4677
I1
sS'decisive'
p4678
I5
sS'daringly'
p4679
I1
sS'mornings'
p4680
I1
sS'mischief'
p4681
I5
sS'complete'
p4682
I20
sS'offering'
p4683
I7
sS'becoming'
p4684
I12
sS'converse'
p4685
I1
sS'motherly'
p4686
I2
sS'extended'
p4687
I1
sS'feminine'
p4688
I1
sS'repeated'
p4689
I17
sS'properly'
p4690
I10
sS'prettily'
p4691
I3
sS'narrower'
p4692
I1
sS'vicarage'
p4693
I17
sS'assented'
p4694
I1
sS'handsome'
p4695
I38
sS'directed'
p4696
I6
sS'arranged'
p4697
I12
sS'romantic'
p4698
I1
sS'guidable'
p4699
I1
sS'attached'
p4700
I25
sS'hautboys'
p4701
I1
sS'carriage'
p4702
I69
sS'convince'
p4703
I9
sS'adoption'
p4704
I1
sS'inquired'
p4705
I2
sS'mildness'
p4706
I1
sS'stirring'
p4707
I1
sS'precedes'
p4708
I1
sS'strongly'
p4709
I7
sS'promises'
p4710
I4
sS'required'
p4711
I14
sS'constant'
p4712
I6
sS'exerting'
p4713
I2
sS'likewise'
p4714
I4
sS'kingston'
p4715
I8
sS'entrance'
p4716
I5
sS'evidence'
p4717
I2
sS'educated'
p4718
I3
sS'promised'
p4719
I17
sS'goodness'
p4720
I7
sS'graceful'
p4721
I4
sS'tranquil'
p4722
I4
sS'internal'
p4723
I1
sS'endeared'
p4724
I1
sS'adelaide'
p4725
I2
sS'compared'
p4726
I11
sS'faithful'
p4727
I2
sS'weakened'
p4728
I1
sS'agreeing'
p4729
I4
sS'attacked'
p4730
I2
sS'sanguine'
p4731
I7
sS'enquired'
p4732
I1
sS'evenings'
p4733
I5
sS'pronouns'
p4734
I1
sS'enlarged'
p4735
I1
sS'readiest'
p4736
I1
sS'coughing'
p4737
I1
sS'blunders'
p4738
I6
sS'brothers'
p4739
I4
sS'separate'
p4740
I12
sS'whirling'
p4741
I1
sS'accosted'
p4742
I1
sS'relented'
p4743
I1
sS'prepared'
p4744
I15
sS'averting'
p4745
I3
sS'middling'
p4746
I1
sS'deathbed'
p4747
I1
sS'allowing'
p4748
I5
sS'velocity'
p4749
I1
sS'included'
p4750
I5
sS'charades'
p4751
I4
sS'yeomanry'
p4752
I1
sS'building'
p4753
I2
sS'backward'
p4754
I1
sS'bestowed'
p4755
I3
sS'caviller'
p4756
I1
sS'blushing'
p4757
I4
sS'interval'
p4758
I5
sS'together'
p4759
I81
sS'admiring'
p4760
I3
sS'carrying'
p4761
I9
sS'forswear'
p4762
I1
sS'conjugal'
p4763
I2
sS'intimacy'
p4764
I21
sS'stricken'
p4765
I1
sS'requires'
p4766
I5
sS'original'
p4767
I5
sS'restored'
p4768
I5
sa(dp4769
S'rencontre'
p4770
I3
sS'influenza'
p4771
I1
sS'faultless'
p4772
I1
sS'represent'
p4773
I1
sS'desirable'
p4774
I18
sS'weariness'
p4775
I2
sS'horseback'
p4776
I5
sS'enjoyable'
p4777
I1
sS'arranging'
p4778
I1
sS'executing'
p4779
I1
sS'integrity'
p4780
I1
sS'assembled'
p4781
I4
sS'briskness'
p4782
I1
sS'strangers'
p4783
I1
sS'certainly'
p4784
I101
sS'attentive'
p4785
I10
sS'calculate'
p4786
I2
sS'concerned'
p4787
I15
sS'seriously'
p4788
I16
sS'sparkling'
p4789
I2
sS'arrogance'
p4790
I3
sS'promoting'
p4791
I1
sS'preserved'
p4792
I4
sS'sauciness'
p4793
I1
sS'differing'
p4794
I1
sS'plaintive'
p4795
I2
sS'artlessly'
p4796
I1
sS'resources'
p4797
I10
sS'belonging'
p4798
I4
sS'breathing'
p4799
I2
sS'presently'
p4800
I22
sS'advantage'
p4801
I27
sS'returning'
p4802
I17
sS'confiding'
p4803
I1
sS'steadiest'
p4804
I1
sS'agitating'
p4805
I1
sS'seemingly'
p4806
I3
sS'headaches'
p4807
I1
sS'housemaid'
p4808
I1
sS'rapturous'
p4809
I1
sS'welcoming'
p4810
I2
sS'forgiving'
p4811
I1
sS'engrafted'
p4812
I1
sS'continued'
p4813
I38
sS'condition'
p4814
I6
sS'sarcastic'
p4815
I1
sS'vouchsafe'
p4816
I2
sS'perceived'
p4817
I10
sS'presented'
p4818
I3
sS'deficient'
p4819
I5
sS'guileless'
p4820
I1
sS'ceaseless'
p4821
I2
sS'proposals'
p4822
I3
sS'wednesday'
p4823
I2
sS'reminding'
p4824
I2
sS'assurance'
p4825
I8
sS'diffident'
p4826
I2
sS'insolence'
p4827
I2
sS'concluded'
p4828
I4
sS'dexterity'
p4829
I1
sS'employing'
p4830
I2
sS'diverting'
p4831
I1
sS'cordially'
p4832
I4
sS'midsummer'
p4833
I4
sS'sensation'
p4834
I6
sS'carefully'
p4835
I3
sS'invention'
p4836
I2
sS'carriages'
p4837
I11
sS'portfolio'
p4838
I1
sS'inebriety'
p4839
I1
sS'estimated'
p4840
I1
sS'refrained'
p4841
I1
sS'creatures'
p4842
I6
sS'doctrines'
p4843
I1
sS'sideboard'
p4844
I1
sS'novelties'
p4845
I1
sS'apparatus'
p4846
I1
sS'witnessed'
p4847
I4
sS'forestall'
p4848
I1
sS'novitiate'
p4849
I1
sS'expressed'
p4850
I10
sS'soothings'
p4851
I1
sS'prevailed'
p4852
I6
sS'insinuate'
p4853
I1
sS'undecided'
p4854
I1
sS'judicious'
p4855
I3
sS'blundered'
p4856
I1
sS'geography'
p4857
I1
sS'amounting'
p4858
I1
sS'alertness'
p4859
I4
sS'christian'
p4860
I2
sS'overseers'
p4861
I1
sS'unfeeling'
p4862
I3
sS'behaviour'
p4863
I25
sS'entertain'
p4864
I4
sS'conceited'
p4865
I4
sS'properest'
p4866
I1
sS'shortness'
p4867
I1
sS'implanted'
p4868
I1
sS'observing'
p4869
I8
sS'supplying'
p4870
I3
sS'referring'
p4871
I1
sS'merriment'
p4872
I2
sS'substance'
p4873
I7
sS'exemption'
p4874
I2
sS'vexations'
p4875
I1
sS'brilliant'
p4876
I6
sS'paradings'
p4877
I1
sS'resulting'
p4878
I1
sS'acquittal'
p4879
I2
sS'abolition'
p4880
I1
sS'encourage'
p4881
I3
sS'simpleton'
p4882
I2
sS'sweetness'
p4883
I7
sS'negatives'
p4884
I1
sS'criticism'
p4885
I1
sS'examining'
p4886
I4
sS'churchill'
p4887
I224
sS'inference'
p4888
I1
sS'addresses'
p4889
I3
sS'complying'
p4890
I3
sS'explained'
p4891
I3
sS'marriages'
p4892
I1
sS'sincerely'
p4893
I7
sS'addressed'
p4894
I4
sS'fearfully'
p4895
I2
sS'betraying'
p4896
I2
sS'enlivened'
p4897
I2
sS'sufferers'
p4898
I1
sS'conniving'
p4899
I1
sS'establish'
p4900
I1
sS'detecting'
p4901
I1
sS'comprised'
p4902
I1
sS'dumplings'
p4903
I1
sS'moralised'
p4904
I1
sS'agreeably'
p4905
I5
sS'composure'
p4906
I8
sS'remainder'
p4907
I1
sS'ingenuity'
p4908
I2
sS'stipulate'
p4909
I1
sS'variously'
p4910
I2
sS'comparing'
p4911
I1
sS'unadorned'
p4912
I1
sS'therefore'
p4913
I62
sS'wondering'
p4914
I6
sS'recommend'
p4915
I20
sS'feelingly'
p4916
I3
sS'agreeable'
p4917
I50
sS'tradesman'
p4918
I1
sS'brunswick'
p4919
I11
sS'nonsenses'
p4920
I1
sS'separated'
p4921
I3
sS'tolerated'
p4922
I1
sS'credulity'
p4923
I1
sS'endurance'
p4924
I1
sS'fatiguing'
p4925
I1
sS'corrected'
p4926
I1
sS'infection'
p4927
I3
sS'approving'
p4928
I4
sS'uppermost'
p4929
I1
sS'overboard'
p4930
I1
sS'hesitated'
p4931
I5
sS'excellent'
p4932
I34
sS'continual'
p4933
I9
sS'procuring'
p4934
I5
sS'testifies'
p4935
I1
sS'producing'
p4936
I4
sS'appointed'
p4937
I1
sS'abundance'
p4938
I5
sS'terseness'
p4939
I1
sS'tunbridge'
p4940
I1
sS'retreated'
p4941
I2
sS'irritable'
p4942
I1
sS'eyelashes'
p4943
I1
sS'impending'
p4944
I1
sS'vexatious'
p4945
I1
sS'following'
p4946
I14
sS'elegantly'
p4947
I3
sS'slightest'
p4948
I5
sS'espionage'
p4949
I1
sS'beautiful'
p4950
I24
sS'exchanged'
p4951
I1
sS'performer'
p4952
I2
sS'unconcern'
p4953
I1
sS'indicated'
p4954
I1
sS'quivering'
p4955
I2
sS'attribute'
p4956
I1
sS'neglected'
p4957
I3
sS'greatcoat'
p4958
I1
sS'pointedly'
p4959
I2
sS'overheard'
p4960
I2
sS'something'
p4961
I113
sS'purchased'
p4962
I1
sS'evidently'
p4963
I13
sS'advancing'
p4964
I1
sS'rejoicing'
p4965
I1
sS'struggles'
p4966
I1
sS'fortunate'
p4967
I27
sS'stupidity'
p4968
I2
sS'disturbed'
p4969
I6
sS'fidgeting'
p4970
I1
sS'estimable'
p4971
I1
sS'interview'
p4972
I2
sS'prejudice'
p4973
I2
sS'allowable'
p4974
I4
sS'movements'
p4975
I1
sS'meditated'
p4976
I2
sS'bickerton'
p4977
I3
sS'absenting'
p4978
I2
sS'relapsing'
p4979
I1
sS'foreboded'
p4980
I1
sS'elizabeth'
p4981
I8
sS'staircase'
p4982
I3
sS'undertake'
p4983
I1
sS'replacing'
p4984
I1
sS'disgraced'
p4985
I3
sS'sacrifice'
p4986
I9
sS'indignity'
p4987
I1
sS'different'
p4988
I42
sS'demanding'
p4989
I1
sS'disgusted'
p4990
I2
sS'adventure'
p4991
I2
sS'curiosity'
p4992
I28
sS'gardeners'
p4993
I2
sS'unselfish'
p4994
I1
sS'contrived'
p4995
I6
sS'knightley'
p4996
I389
sS'wiltshire'
p4997
I1
sS'varieties'
p4998
I2
sS'succeeded'
p4999
I11
sS'conscious'
p5000
I11
sS'footsteps'
p5001
I1
sS'departure'
p5002
I3
sS'presiding'
p5003
I1
sS'trembling'
p5004
I5
sS'propriety'
p5005
I8
sS'acuteness'
p5006
I1
sS'clamorous'
p5007
I1
sS'imagining'
p5008
I2
sS'furnished'
p5009
I3
sS'september'
p5010
I5
sS'heartfelt'
p5011
I1
sS'displayed'
p5012
I2
sS'satisfied'
p5013
I52
sS'confidant'
p5014
I1
sS'stability'
p5015
I2
sS'staggered'
p5016
I1
sS'including'
p5017
I3
sS'committed'
p5018
I4
sS'mentioned'
p5019
I26
sS'existence'
p5020
I8
sS'satisfies'
p5021
I2
sS'talkative'
p5022
I3
sS'unchecked'
p5023
I2
sS'inquiries'
p5024
I10
sS'unhealthy'
p5025
I2
sS'admirably'
p5026
I1
sS'surprized'
p5027
I32
sS'surviving'
p5028
I1
sS'hypocrisy'
p5029
I1
sS'somewhere'
p5030
I4
sS'haphazard'
p5031
I1
sS'yorkshire'
p5032
I8
sS'destroyed'
p5033
I2
sS'imaginist'
p5034
I1
sS'permanent'
p5035
I1
sS'suspicion'
p5036
I20
sS'encounter'
p5037
I5
sS'atonement'
p5038
I2
sS'admirable'
p5039
I3
sS'spreading'
p5040
I1
sS'instantly'
p5041
I14
sS'conveying'
p5042
I1
sS'prevented'
p5043
I9
sS'obtaining'
p5044
I1
sS'commended'
p5045
I1
sS'introduce'
p5046
I8
sS'negligent'
p5047
I5
sS'educating'
p5048
I1
sS'qualified'
p5049
I2
sS'repulsive'
p5050
I1
sS'courtship'
p5051
I1
sS'downright'
p5052
I5
sS'provision'
p5053
I3
sS'struggled'
p5054
I2
sS'hereafter'
p5055
I3
sS'rendering'
p5056
I1
sS'occasions'
p5057
I7
sS'sleepless'
p5058
I1
sS'freshness'
p5059
I3
sS'asparagus'
p5060
I3
sS'dignified'
p5061
I2
sS'repeating'
p5062
I2
sS'difficult'
p5063
I7
sS'expressly'
p5064
I1
sS'exquisite'
p5065
I9
sS'proposing'
p5066
I2
sS'oppressed'
p5067
I1
sS'wakefield'
p5068
I1
sS'fortnight'
p5069
I20
sS'operation'
p5070
I4
sS'absurdity'
p5071
I2
sS'allusions'
p5072
I1
sS'amusement'
p5073
I16
sS'sentiment'
p5074
I10
sS'unnatural'
p5075
I3
sS'excepting'
p5076
I13
sS'projected'
p5077
I2
sS'woodhouse'
p5078
I313
sS'impartial'
p5079
I1
sS'contained'
p5080
I4
sS'messenger'
p5081
I2
sS'eccentric'
p5082
I2
sS'expiation'
p5083
I1
sS'fortitude'
p5084
I4
sS'receiving'
p5085
I14
sS'impudence'
p5086
I1
sS'announced'
p5087
I5
sS'bordering'
p5088
I1
sS'presuming'
p5089
I1
sS'nervously'
p5090
I1
sS'obtruding'
p5091
I1
sS'associate'
p5092
I3
sS'convivial'
p5093
I1
sS'ascending'
p5094
I1
sS'attending'
p5095
I8
sS'formation'
p5096
I1
sS'brightest'
p5097
I1
sS'tenderest'
p5098
I2
sS'collation'
p5099
I1
sS'amazement'
p5100
I4
sS'attendant'
p5101
I1
sS'solicited'
p5102
I1
sS'beginning'
p5103
I40
sS'certified'
p5104
I1
sS'liberally'
p5105
I1
sS'patronage'
p5106
I1
sS'shrubbery'
p5107
I5
sS'stomacher'
p5108
I1
sS'disguised'
p5109
I1
sS'unmerited'
p5110
I2
sS'contented'
p5111
I6
sS'relenting'
p5112
I1
sS'grandpapa'
p5113
I3
sS'expecting'
p5114
I13
sS'desultory'
p5115
I1
sS'expedient'
p5116
I1
sS'sorrowful'
p5117
I5
sS'childhood'
p5118
I2
sS'benefited'
p5119
I2
sS'obscurity'
p5120
I3
sS'officious'
p5121
I1
sS'unfeigned'
p5122
I1
sS'playfully'
p5123
I2
sS'reflected'
p5124
I3
sS'comforted'
p5125
I3
sS'obedience'
p5126
I2
sS'instances'
p5127
I3
sS'delicious'
p5128
I2
sS'enumerate'
p5129
I1
sS'precisely'
p5130
I7
sS'umbrellas'
p5131
I2
sS'opportune'
p5132
I1
sS'cheerless'
p5133
I1
sS'exertions'
p5134
I6
sS'penitence'
p5135
I1
sS'indulgent'
p5136
I2
sS'lightened'
p5137
I2
sS'detailing'
p5138
I1
sS'entreated'
p5139
I4
sS'relations'
p5140
I4
sS'plentiful'
p5141
I1
sS'wonderful'
p5142
I13
sS'dissipate'
p5143
I1
sS'statement'
p5144
I1
sS'syllables'
p5145
I1
sS'perfectly'
p5146
I67
sS'recovered'
p5147
I12
sS'circulate'
p5148
I1
sS'interests'
p5149
I2
sS'exploring'
p5150
I11
sS'accompany'
p5151
I3
sS'readiness'
p5152
I2
sS'completed'
p5153
I3
sS'apologise'
p5154
I2
sS'pondering'
p5155
I2
sS'immediate'
p5156
I14
sS'alphabets'
p5157
I2
sS'requisite'
p5158
I4
sS'convinced'
p5159
I37
sS'travelled'
p5160
I1
sS'ulcerated'
p5161
I1
sS'blameable'
p5162
I1
sS'leniently'
p5163
I1
sS'affronted'
p5164
I2
sS'overtaken'
p5165
I2
sS'depressed'
p5166
I6
sS'solemnity'
p5167
I1
sS'submitted'
p5168
I6
sS'listeners'
p5169
I1
sS'exclaimed'
p5170
I12
sS'lingering'
p5171
I1
sS'deserving'
p5172
I4
sS'wandering'
p5173
I1
sS'ingenious'
p5174
I2
sS'festivity'
p5175
I1
sS'gathering'
p5176
I2
sS'forfeited'
p5177
I1
sS'outwardly'
p5178
I1
sS'aspersion'
p5179
I1
sS'portraits'
p5180
I1
sS'unchanged'
p5181
I1
sS'confessed'
p5182
I2
sS'sixpences'
p5183
I1
sS'enchanted'
p5184
I1
sS'sincerity'
p5185
I4
sS'sentences'
p5186
I3
sS'preserves'
p5187
I1
sS'breakfast'
p5188
I12
sS'likeliest'
p5189
I1
sS'confesses'
p5190
I2
sS'deposited'
p5191
I1
sS'wholesome'
p5192
I5
sS'venturing'
p5193
I3
sS'acquitted'
p5194
I1
sS'answering'
p5195
I5
sS'patroness'
p5196
I2
sS'animation'
p5197
I6
sS'unsettled'
p5198
I1
sS'irritated'
p5199
I3
sS'imprudent'
p5200
I6
sS'flattered'
p5201
I4
sS'incapable'
p5202
I2
sS'effecting'
p5203
I1
sS'connected'
p5204
I11
sS'flatterer'
p5205
I2
sS'retaining'
p5206
I1
sS'accepting'
p5207
I6
sS'cleverest'
p5208
I1
sS'extremely'
p5209
I66
sS'hardships'
p5210
I1
sS'constancy'
p5211
I3
sS'assisting'
p5212
I3
sS'pretended'
p5213
I1
sS'sometimes'
p5214
I39
sS'blockhead'
p5215
I3
sS'dissolved'
p5216
I1
sS'accounted'
p5217
I1
sS'principle'
p5218
I5
sS'hindrance'
p5219
I1
sS'stockings'
p5220
I1
sS'dispersed'
p5221
I2
sS'attacking'
p5222
I1
sS'decidedly'
p5223
I13
sS'regulated'
p5224
I1
sS'pencilled'
p5225
I1
sS'absorbing'
p5226
I1
sS'southward'
p5227
I1
sS'scattered'
p5228
I3
sS'accession'
p5229
I1
sS'inventing'
p5230
I1
sS'gratified'
p5231
I15
sS'excessive'
p5232
I3
sS'sheepskin'
p5233
I1
sS'annoyance'
p5234
I1
sS'principal'
p5235
I8
sS'exteriors'
p5236
I1
sS'adoration'
p5237
I2
sS'resisting'
p5238
I1
sS'knowledge'
p5239
I26
sS'detaining'
p5240
I2
sS'quickened'
p5241
I1
sS'privation'
p5242
I1
sS'assertion'
p5243
I1
sS'believing'
p5244
I3
sS'inherited'
p5245
I2
sS'foolishly'
p5246
I2
sS'cautioned'
p5247
I1
sS'ecstasies'
p5248
I1
sS'thousands'
p5249
I5
sS'indignant'
p5250
I2
sS'regularly'
p5251
I3
sS'publicity'
p5252
I1
sS'accordant'
p5253
I1
sS'meanwhile'
p5254
I6
sS'dependent'
p5255
I3
sS'assistant'
p5256
I1
sS'muttering'
p5257
I2
sS'preferred'
p5258
I10
sS'prolonged'
p5259
I1
sS'deadening'
p5260
I1
sS'mickleham'
p5261
I1
sS'preparing'
p5262
I5
sS'penetrate'
p5263
I1
sS'treachery'
p5264
I2
sS'dwellings'
p5265
I1
sS'secondary'
p5266
I2
sS'underbred'
p5267
I1
sS'fricassee'
p5268
I1
sS'regarding'
p5269
I1
sS'sucklings'
p5270
I6
sS'humourist'
p5271
I3
sS'countries'
p5272
I1
sS'pleasures'
p5273
I9
sS'anxiously'
p5274
I6
sS'hartfield'
p5275
I160
sS'quietness'
p5276
I1
sS'tottering'
p5277
I1
sS'esteeming'
p5278
I1
sS'ascertain'
p5279
I3
sS'adherence'
p5280
I1
sS'finishing'
p5281
I1
sS'retentive'
p5282
I1
sS'placidity'
p5283
I1
sS'slackened'
p5284
I1
sS'seventeen'
p5285
I3
sS'erroneous'
p5286
I1
sS'miserably'
p5287
I3
sS'senseless'
p5288
I1
sS'unmarried'
p5289
I1
sS'enquiring'
p5290
I1
sS'waverings'
p5291
I1
sS'blameless'
p5292
I3
sS'plausible'
p5293
I1
sS'unsullied'
p5294
I1
sS'unvarying'
p5295
I1
sS'desperate'
p5296
I3
sS'undertook'
p5297
I1
sS'apologies'
p5298
I8
sS'miserable'
p5299
I11
sS'excusable'
p5300
I2
sS'bluntness'
p5301
I1
sS'professed'
p5302
I6
sS'gentility'
p5303
I6
sS'voluntary'
p5304
I3
sS'insulting'
p5305
I1
sS'gentleman'
p5306
I35
sS'unimpeded'
p5307
I1
sS'degrading'
p5308
I3
sS'protected'
p5309
I1
sS'injustice'
p5310
I4
sS'correctly'
p5311
I1
sS'storeroom'
p5312
I1
sS'affecting'
p5313
I1
sS'justified'
p5314
I5
sS'illiberal'
p5315
I1
sS'untainted'
p5316
I2
sS'lamenting'
p5317
I2
sS'discovery'
p5318
I8
sS'whispered'
p5319
I3
sS'smilingly'
p5320
I1
sS'intending'
p5321
I4
sS'confusion'
p5322
I15
sS'attention'
p5323
I59
sS'ignorance'
p5324
I4
sS'interfere'
p5325
I3
sS'twinkling'
p5326
I1
sS'competent'
p5327
I3
sS'declining'
p5328
I4
sS'suggested'
p5329
I6
sS'untouched'
p5330
I1
sS'prospects'
p5331
I8
sS'fragrance'
p5332
I1
sS'conversed'
p5333
I1
sS'irregular'
p5334
I2
sS'residence'
p5335
I4
sS'stupidest'
p5336
I2
sS'matrimony'
p5337
I8
sS'according'
p5338
I5
sS'deduction'
p5339
I2
sS'insidious'
p5340
I2
sS'forgotten'
p5341
I19
sS'doatingly'
p5342
I1
sS'conquered'
p5343
I2
sS'utterance'
p5344
I1
sS'doctoring'
p5345
I1
sS'otherwise'
p5346
I20
sS'mortified'
p5347
I8
sS'despaired'
p5348
I1
sS'honouring'
p5349
I1
sS'favouring'
p5350
I2
sS'incessant'
p5351
I5
sS'subscribe'
p5352
I1
sS'adjoining'
p5353
I6
sS'consoling'
p5354
I2
sS'pulmonary'
p5355
I1
sS'inflicted'
p5356
I1
sS'connexion'
p5357
I20
sS'withdrawn'
p5358
I3
sS'patiently'
p5359
I1
sS'gratitude'
p5360
I29
sS'resorting'
p5361
I1
sS'alderneys'
p5362
I1
sS'described'
p5363
I5
sS'houseroom'
p5364
I1
sS'depending'
p5365
I1
sS'hastening'
p5366
I1
sS'abstained'
p5367
I1
sS'dignities'
p5368
I1
sS'attaching'
p5369
I1
sS'confident'
p5370
I3
sS'practised'
p5371
I3
sS'interpret'
p5372
I1
sS'collected'
p5373
I9
sS'surprizes'
p5374
I2
sS'labouring'
p5375
I1
sS'shoulders'
p5376
I3
sS'perplexed'
p5377
I1
sS'overthrow'
p5378
I1
sS'precision'
p5379
I1
sS'neighbour'
p5380
I8
sS'arrowroot'
p5381
I3
sS'harboured'
p5382
I1
sS'suspected'
p5383
I14
sS'regretted'
p5384
I5
sS'extensive'
p5385
I4
sS'divisions'
p5386
I3
sS'exception'
p5387
I5
sS'uncertain'
p5388
I2
sS'reinstate'
p5389
I1
sS'premature'
p5390
I2
sS'remaining'
p5391
I3
sS'strangest'
p5392
I1
sS'institute'
p5393
I1
sS'promising'
p5394
I5
sS'newspaper'
p5395
I1
sS'situation'
p5396
I64
sS'advisable'
p5397
I2
sS'indulging'
p5398
I4
sS'offending'
p5399
I1
sS'agitation'
p5400
I16
sS'apprehend'
p5401
I3
sS'broadwood'
p5402
I2
sS'soliloquy'
p5403
I1
sS'respected'
p5404
I2
sS'splendour'
p5405
I2
sS'commanded'
p5406
I2
sS'alliances'
p5407
I1
sS'slighting'
p5408
I2
sS'complains'
p5409
I2
sS'renounced'
p5410
I1
sS'disengage'
p5411
I2
sS'confirmed'
p5412
I5
sS'scalloped'
p5413
I1
sS'arguments'
p5414
I2
sS'engrossed'
p5415
I2
sS'entitling'
p5416
I1
sS'gentlemen'
p5417
I24
sS'discourse'
p5418
I2
sS'sheltered'
p5419
I2
sS'incumbent'
p5420
I2
sS'deference'
p5421
I2
sS'engrosses'
p5422
I1
sS'daughters'
p5423
I7
sS'clearness'
p5424
I4
sS'temporary'
p5425
I2
sS'labourers'
p5426
I1
sS'effusions'
p5427
I1
sS'enjoyment'
p5428
I22
sS'restraint'
p5429
I3
sS'declaring'
p5430
I1
sS'conceived'
p5431
I3
sS'yesterday'
p5432
I31
sS'companion'
p5433
I27
sS'liberties'
p5434
I1
sS'undaunted'
p5435
I1
sS'petticoat'
p5436
I2
sS'colouring'
p5437
I2
sS'necessity'
p5438
I10
sS'supposing'
p5439
I9
sS'casements'
p5440
I1
sS'laborious'
p5441
I1
sS'obstinate'
p5442
I1
sS'objecting'
p5443
I1
sS'smallness'
p5444
I1
sS'possessed'
p5445
I3
sS'obstacles'
p5446
I1
sS'increases'
p5447
I1
sS'magnified'
p5448
I1
sS'intervals'
p5449
I1
sS'commonest'
p5450
I1
sS'jeffereys'
p5451
I1
sS'qualities'
p5452
I6
sS'inability'
p5453
I1
sS'allowance'
p5454
I2
sS'possesses'
p5455
I1
sS'grandmama'
p5456
I13
sS'grievance'
p5457
I2
sS'abilities'
p5458
I3
sS'endeavour'
p5459
I14
sS'twentieth'
p5460
I1
sS'softening'
p5461
I2
sS'composing'
p5462
I1
sS'shivering'
p5463
I1
sS'inclining'
p5464
I1
sS'rheumatic'
p5465
I1
sS'expectant'
p5466
I1
sS'questions'
p5467
I12
sS'partridge'
p5468
I3
sS'dissuaded'
p5469
I1
sS'happiness'
p5470
I76
sS'tolerably'
p5471
I15
sS'reckoning'
p5472
I1
sS'dialogues'
p5473
I1
sS'clergyman'
p5474
I1
sS'observant'
p5475
I2
sS'admission'
p5476
I1
sS'character'
p5477
I43
sS'disparity'
p5478
I7
sS'treatment'
p5479
I7
sS'requiring'
p5480
I2
sS'disputing'
p5481
I1
sS'earnestly'
p5482
I12
sS'furniture'
p5483
I2
sS'scoundrel'
p5484
I1
sS'tolerable'
p5485
I9
sS'goldsmith'
p5486
I1
sS'complaint'
p5487
I7
sS'elevation'
p5488
I3
sS'increased'
p5489
I12
sS'campbells'
p5490
I26
sS'quickness'
p5491
I9
sS'suffering'
p5492
I16
sS'entangled'
p5493
I2
sS'listening'
p5494
I7
sS'intimates'
p5495
I2
sS'appearing'
p5496
I5
sS'execution'
p5497
I2
sS'ornaments'
p5498
I1
sS'prominent'
p5499
I3
sS'bewitches'
p5500
I1
sS'freshened'
p5501
I2
sS'necessary'
p5502
I36
sS'governess'
p5503
I9
sS'perpetual'
p5504
I4
sS'fastening'
p5505
I1
sS'quadrille'
p5506
I1
sS'northward'
p5507
I1
sS'exhausted'
p5508
I2
sS'provoking'
p5509
I6
sS'overrated'
p5510
I1
sS'animating'
p5511
I3
sS'repressed'
p5512
I2
sS'essential'
p5513
I3
sS'privately'
p5514
I1
sS'amendment'
p5515
I1
sS'deviation'
p5516
I1
sS'falsehood'
p5517
I2
sS'stimulate'
p5518
I1
sS'dispensed'
p5519
I1
sS'fluttered'
p5520
I1
sS'pronounce'
p5521
I2
sS'authority'
p5522
I6
sS'physician'
p5523
I1
sS'strongest'
p5524
I5
sS'insincere'
p5525
I2
sS'whichever'
p5526
I1
sS'ourselves'
p5527
I17
sS'momentary'
p5528
I5
sS'delivered'
p5529
I2
sS'gradually'
p5530
I10
sS'literally'
p5531
I1
sS'exceeding'
p5532
I1
sS'wingfield'
p5533
I10
sS'considers'
p5534
I4
sS'dispelled'
p5535
I1
sS'inhabited'
p5536
I1
sS'unluckily'
p5537
I1
sS'seclusion'
p5538
I5
sS'christmas'
p5539
I11
sS'restoring'
p5540
I1
sS'misbehave'
p5541
I1
sS'measuring'
p5542
I1
sS'palatable'
p5543
I1
sS'dejection'
p5544
I1
sS'apartment'
p5545
I2
sS'agreement'
p5546
I1
sS'concealed'
p5547
I2
sS'terrified'
p5548
I1
sS'proceeded'
p5549
I13
sS'imaginary'
p5550
I4
sS'affording'
p5551
I2
sS'adversary'
p5552
I1
sS'permitted'
p5553
I4
sS'homewards'
p5554
I1
sS'certainty'
p5555
I10
sS'discussed'
p5556
I1
sS'recollect'
p5557
I19
sS'frightful'
p5558
I2
sS'sublimity'
p5559
I1
sS'blessings'
p5560
I6
sS'repellent'
p5561
I1
sS'afternoon'
p5562
I6
sS'entrapped'
p5563
I1
sS'persuaded'
p5564
I31
sS'reluctant'
p5565
I1
sS'unnoticed'
p5566
I3
sS'imitation'
p5567
I1
sS'vulgarity'
p5568
I2
sS'bountiful'
p5569
I2
sS'catherine'
p5570
I1
sS'delighted'
p5571
I30
sS'exercises'
p5572
I1
sS'determine'
p5573
I4
sS'narration'
p5574
I2
sS'consented'
p5575
I1
sS'lessening'
p5576
I1
sS'shrinking'
p5577
I1
sS'parentage'
p5578
I2
sS'impressed'
p5579
I3
sS'pilfering'
p5580
I1
sS'forwarded'
p5581
I1
sS'unclosing'
p5582
I1
sS'crossness'
p5583
I1
sS'amazingly'
p5584
I2
sS'personage'
p5585
I1
sS'prodigies'
p5586
I1
sS'overpower'
p5587
I2
sS'intention'
p5588
I7
sS'greatness'
p5589
I1
sS'signified'
p5590
I2
sS'specimens'
p5591
I2
sS'purposely'
p5592
I2
sS'naturally'
p5593
I14
sS'elsewhere'
p5594
I2
sS'diligence'
p5595
I1
sS'attempted'
p5596
I6
sS'privilege'
p5597
I5
sS'ungallant'
p5598
I1
sS'liveliest'
p5599
I1
sS'blindness'
p5600
I7
sS'surrender'
p5601
I2
sS'partially'
p5602
I2
sS'rejection'
p5603
I1
sS'gallantry'
p5604
I12
sS'finessing'
p5605
I1
sS'dangerous'
p5606
I8
sS'vacancies'
p5607
I1
sS'unreserve'
p5608
I6
sS'foresight'
p5609
I1
sS'inquiring'
p5610
I4
sS'powerless'
p5611
I1
sS'affection'
p5612
I50
sS'profusion'
p5613
I2
sS'illnesses'
p5614
I3
sS'tautology'
p5615
I1
sS'eagerness'
p5616
I10
sS'reconcile'
p5617
I2
sS'brotherly'
p5618
I2
sS'conundrum'
p5619
I3
sS'universal'
p5620
I1
sS'influence'
p5621
I24
sS'direction'
p5622
I6
sS'consulted'
p5623
I4
sS'smartened'
p5624
I1
sS'fashioned'
p5625
I3
sS'tremulous'
p5626
I1
sS'education'
p5627
I16
sS'injurious'
p5628
I2
sS'willingly'
p5629
I2
sS'moonlight'
p5630
I2
sS'unwelcome'
p5631
I5
sS'protested'
p5632
I2
sS'improving'
p5633
I1
sS'objection'
p5634
I13
sS'discerned'
p5635
I3
sS'generally'
p5636
I24
sS'intellect'
p5637
I1
sS'visitings'
p5638
I1
sS'unwilling'
p5639
I7
sS'disposing'
p5640
I1
sS'fruitless'
p5641
I1
sS'requested'
p5642
I1
sS'energetic'
p5643
I1
sS'favourite'
p5644
I23
sS'variation'
p5645
I2
sS'luxurious'
p5646
I3
sS'important'
p5647
I20
sS'decorated'
p5648
I1
sS'constrain'
p5649
I1
sS'happening'
p5650
I4
sS'prevalent'
p5651
I1
sS'harmonise'
p5652
I1
sS'resolving'
p5653
I4
sS'impatient'
p5654
I12
sS'reception'
p5655
I4
sS'narrative'
p5656
I1
sS'conferred'
p5657
I1
sS'undoubted'
p5658
I1
sS'precedent'
p5659
I1
sa(dp5660
S'discreetly'
p5661
I1
sS'remarkable'
p5662
I3
sS'similarity'
p5663
I1
sS'groundwork'
p5664
I1
sS'invariable'
p5665
I1
sS'livelihood'
p5666
I1
sS'thoughtful'
p5667
I5
sS'remarkably'
p5668
I11
sS'allowances'
p5669
I3
sS'displaying'
p5670
I1
sS'delegating'
p5671
I1
sS'aggression'
p5672
I1
sS'improperly'
p5673
I2
sS'disgusting'
p5674
I2
sS'unanswered'
p5675
I1
sS'recurrence'
p5676
I2
sS'neighbours'
p5677
I16
sS'unpleasant'
p5678
I13
sS'connecting'
p5679
I1
sS'carelessly'
p5680
I1
sS'conjecture'
p5681
I4
sS'compassion'
p5682
I13
sS'implicitly'
p5683
I1
sS'suggesting'
p5684
I2
sS'politician'
p5685
I1
sS'difference'
p5686
I31
sS'courageous'
p5687
I1
sS'oftentimes'
p5688
I1
sS'bewildered'
p5689
I3
sS'respectful'
p5690
I2
sS'elegancies'
p5691
I3
sS'disclaimed'
p5692
I1
sS'loneliness'
p5693
I1
sS'woodhouses'
p5694
I4
sS'nourishing'
p5695
I1
sS'singularly'
p5696
I1
sS'admissible'
p5697
I2
sS'engrossing'
p5698
I1
sS'excellence'
p5699
I5
sS'mutterings'
p5700
I1
sS'manchester'
p5701
I1
sS'wantonness'
p5702
I1
sS'deplorable'
p5703
I3
sS'designedly'
p5704
I1
sS'unexpected'
p5705
I4
sS'occurrence'
p5706
I3
sS'methodical'
p5707
I2
sS'foundation'
p5708
I3
sS'honourably'
p5709
I1
sS'consistent'
p5710
I1
sS'injunction'
p5711
I3
sS'occasioned'
p5712
I4
sS'lengthened'
p5713
I1
sS'miniatures'
p5714
I1
sS'honourable'
p5715
I10
sS'perplexity'
p5716
I4
sS'abominable'
p5717
I7
sS'expressive'
p5718
I2
sS'penetrated'
p5719
I1
sS'conscience'
p5720
I8
sS'hesitation'
p5721
I9
sS'inelegance'
p5722
I1
sS'forgetting'
p5723
I7
sS'assistance'
p5724
I14
sS'contracted'
p5725
I1
sS'consequent'
p5726
I1
sS'henceforth'
p5727
I1
sS'unmirthful'
p5728
I1
sS'conundrums'
p5729
I1
sS'increasing'
p5730
I9
sS'consisting'
p5731
I1
sS'inducement'
p5732
I4
sS'expiration'
p5733
I1
sS'melancholy'
p5734
I12
sS'intellects'
p5735
I2
sS'repugnance'
p5736
I1
sS'favourably'
p5737
I3
sS'refinement'
p5738
I3
sS'protection'
p5739
I2
sS'compressed'
p5740
I1
sS'separation'
p5741
I4
sS'concluding'
p5742
I4
sS'likenesses'
p5743
I2
sS'interposed'
p5744
I1
sS'conviction'
p5745
I16
sS'distressed'
p5746
I5
sS'compliance'
p5747
I2
sS'unfriendly'
p5748
I1
sS'experience'
p5749
I4
sS'suggestion'
p5750
I2
sS'outstepped'
p5751
I1
sS'punishment'
p5752
I4
sS'distresses'
p5753
I1
sS'regardless'
p5754
I2
sS'thankfully'
p5755
I2
sS'confession'
p5756
I4
sS'connivance'
p5757
I1
sS'civilities'
p5758
I9
sS'distrusted'
p5759
I1
sS'deciphered'
p5760
I1
sS'sympathise'
p5761
I1
sS'doubtfully'
p5762
I1
sS'extinction'
p5763
I1
sS'unbleached'
p5764
I1
sS'confidence'
p5765
I17
sS'attendance'
p5766
I4
sS'flatterers'
p5767
I1
sS'wonderings'
p5768
I1
sS'feebleness'
p5769
I1
sS'incommoded'
p5770
I2
sS'themselves'
p5771
I40
sS'possession'
p5772
I5
sS'treasuring'
p5773
I1
sS'successful'
p5774
I3
sS'acceptable'
p5775
I8
sS'repentance'
p5776
I1
sS'everywhere'
p5777
I3
sS'particular'
p5778
I40
sS'objections'
p5779
I4
sS'announcing'
p5780
I4
sS'originally'
p5781
I1
sS'deprecated'
p5782
I1
sS'slumbering'
p5783
I1
sS'repressing'
p5784
I1
sS'deservedly'
p5785
I2
sS'grievously'
p5786
I1
sS'indulgence'
p5787
I8
sS'courtesies'
p5788
I1
sS'needlework'
p5789
I1
sS'preserving'
p5790
I2
sS'unequalled'
p5791
I1
sS'unevenness'
p5792
I1
sS'influenced'
p5793
I2
sS'respective'
p5794
I1
sS'productive'
p5795
I1
sS'stationing'
p5796
I1
sS'discussion'
p5797
I5
sS'strikingly'
p5798
I1
sS'sentiments'
p5799
I7
sS'attachment'
p5800
I48
sS'disappoint'
p5801
I3
sS'persuasion'
p5802
I11
sS'unattended'
p5803
I2
sS'simplicity'
p5804
I10
sS'irrational'
p5805
I1
sS'undergoing'
p5806
I1
sS'portioning'
p5807
I1
sS'reconciled'
p5808
I8
sS'collection'
p5809
I6
sS'michaelmas'
p5810
I1
sS'debasement'
p5811
I1
sS'proclaimed'
p5812
I2
sS'reappeared'
p5813
I3
sS'canvassing'
p5814
I1
sS'churchills'
p5815
I15
sS'appreciate'
p5816
I1
sS'ordinarily'
p5817
I1
sS'groundless'
p5818
I1
sS'dispersing'
p5819
I1
sS'roundabout'
p5820
I1
sS'operations'
p5821
I1
sS'counsellor'
p5822
I2
sS'altogether'
p5823
I23
sS'bewitching'
p5824
I2
sS'contriving'
p5825
I2
sS'quarrelled'
p5826
I4
sS'flattering'
p5827
I4
sS'misconduct'
p5828
I4
sS'wickedness'
p5829
I3
sS'heretofore'
p5830
I1
sS'unprovided'
p5831
I1
sS'reluctance'
p5832
I3
sS'comprehend'
p5833
I15
sS'plantation'
p5834
I1
sS'attraction'
p5835
I8
sS'dreadfully'
p5836
I8
sS'suspension'
p5837
I1
sS'travelling'
p5838
I5
sS'chattering'
p5839
I1
sS'eventually'
p5840
I1
sS'captivated'
p5841
I1
sS'unemployed'
p5842
I1
sS'prejudices'
p5843
I1
sS'liberality'
p5844
I2
sS'grandpapas'
p5845
I1
sS'desponding'
p5846
I1
sS'prejudiced'
p5847
I3
sS'cogitation'
p5848
I1
sS'affections'
p5849
I11
sS'smoothness'
p5850
I3
sS'applicants'
p5851
I1
sS'doubtingly'
p5852
I2
sS'preferable'
p5853
I2
sS'reasonably'
p5854
I1
sS'flatteries'
p5855
I1
sS'benevolent'
p5856
I2
sS'delightful'
p5857
I41
sS'inequality'
p5858
I4
sS'capricious'
p5859
I1
sS'reasonable'
p5860
I20
sS'cordiality'
p5861
I2
sS'pleasanter'
p5862
I3
sS'subjection'
p5863
I2
sS'observance'
p5864
I2
sS'habitation'
p5865
I1
sS'principles'
p5866
I6
sS'deficiency'
p5867
I4
sS'precaution'
p5868
I1
sS'practising'
p5869
I2
sS'apothecary'
p5870
I1
sS'suspecting'
p5871
I5
sS'separating'
p5872
I1
sS'counteract'
p5873
I3
sS'backgammon'
p5874
I3
sS'ungenerous'
p5875
I1
sS'misfortune'
p5876
I6
sS'accomplish'
p5877
I2
sS'professing'
p5878
I1
sS'tenderness'
p5879
I6
sS'restricted'
p5880
I1
sS'surrounded'
p5881
I4
sS'meditating'
p5882
I1
sS'liveliness'
p5883
I4
sS'unprepared'
p5884
I2
sS'extricated'
p5885
I1
sS'deceptions'
p5886
I1
sS'attentions'
p5887
I29
sS'inevitably'
p5888
I2
sS'perception'
p5889
I4
sS'mercantile'
p5890
I1
sS'approached'
p5891
I5
sS'threatened'
p5892
I4
sS'disrespect'
p5893
I1
sS'difficulty'
p5894
I30
sS'completely'
p5895
I26
sS'advantages'
p5896
I12
sS'obligation'
p5897
I5
sS'likelihood'
p5898
I2
sS'inevitable'
p5899
I4
sS'impatience'
p5900
I5
sS'definition'
p5901
I2
sS'befriended'
p5902
I1
sS'unbecoming'
p5903
I1
sS'recovering'
p5904
I4
sS'inspection'
p5905
I1
sS'appendages'
p5906
I1
sS'transition'
p5907
I3
sS'persuading'
p5908
I5
sS'sensations'
p5909
I13
sS'invitation'
p5910
I21
sS'moderately'
p5911
I4
sS'delicately'
p5912
I1
sS'indisposed'
p5913
I3
sS'seasonable'
p5914
I1
sS'affliction'
p5915
I2
sS'impossible'
p5916
I41
sS'forwarding'
p5917
I1
sS'discharged'
p5918
I1
sS'cheerfully'
p5919
I8
sS'management'
p5920
I1
sS'solitarily'
p5921
I1
sS'engagement'
p5922
I31
sS'protracted'
p5923
I2
sS'confirming'
p5924
I1
sS'fortuitous'
p5925
I1
sS'witnessing'
p5926
I1
sS'enchanting'
p5927
I1
sS'complained'
p5928
I1
sS'illiterate'
p5929
I2
sS'pressingly'
p5930
I1
sS'tremblings'
p5931
I1
sS'ridiculous'
p5932
I5
sS'vouchsafed'
p5933
I1
sS'chilblains'
p5934
I1
sS'positively'
p5935
I10
sS'exultingly'
p5936
I1
sS'ungrateful'
p5937
I5
sS'exultation'
p5938
I4
sS'performers'
p5939
I1
sS'infectious'
p5940
I2
sS'hesitating'
p5941
I4
sS'determined'
p5942
I36
sS'profitable'
p5943
I1
sS'threadbare'
p5944
I1
sS'contrasted'
p5945
I1
sS'superadded'
p5946
I1
sS'collecting'
p5947
I4
sS'addressing'
p5948
I9
sS'encumbered'
p5949
I1
sS'respecting'
p5950
I2
sS'suspicious'
p5951
I2
sS'beforehand'
p5952
I4
sS'punctually'
p5953
I3
sS'correspond'
p5954
I1
sS'consenting'
p5955
I2
sS'humouredly'
p5956
I2
sS'delineated'
p5957
I1
sS'exchanging'
p5958
I1
sS'cleverness'
p5959
I1
sS'unaffected'
p5960
I4
sS'apparently'
p5961
I4
sS'prosperity'
p5962
I3
sS'unsuitable'
p5963
I3
sS'thoroughly'
p5964
I19
sS'suddenness'
p5965
I2
sS'pianoforte'
p5966
I22
sS'overcoming'
p5967
I1
sS'purchasing'
p5968
I1
sS'supplanted'
p5969
I4
sS'depression'
p5970
I1
sS'interfered'
p5971
I1
sS'competence'
p5972
I1
sS'creditably'
p5973
I1
sS'instigator'
p5974
I1
sS'oppressive'
p5975
I1
sS'discerning'
p5976
I1
sS'tormenting'
p5977
I1
sS'intentions'
p5978
I9
sS'commanding'
p5979
I1
sS'complaints'
p5980
I4
sS'creditable'
p5981
I1
sS'especially'
p5982
I25
sS'surprising'
p5983
I2
sS'considered'
p5984
I19
sS'calculated'
p5985
I3
sS'popularity'
p5986
I4
sS'charitable'
p5987
I4
sS'perceiving'
p5988
I3
sS'reputation'
p5989
I1
sS'enjoyments'
p5990
I3
sS'incomplete'
p5991
I1
sS'mistresses'
p5992
I1
sS'impression'
p5993
I7
sS'atmosphere'
p5994
I1
sS'expedients'
p5995
I1
sS'memorandum'
p5996
I1
sS'discovered'
p5997
I4
sS'brilliancy'
p5998
I1
sS'uneasiness'
p5999
I10
sS'falsehoods'
p6000
I1
sS'occupation'
p6001
I4
sS'completion'
p6002
I1
sS'unfinished'
p6003
I1
sS'situations'
p6004
I6
sS'indelicacy'
p6005
I1
sS'proportion'
p6006
I4
sS'candidates'
p6007
I1
sS'ostensible'
p6008
I3
sS'entreaties'
p6009
I6
sS'substitute'
p6010
I1
sS'permission'
p6011
I1
sS'admiration'
p6012
I24
sS'perfection'
p6013
I10
sS'pretending'
p6014
I2
sS'distinctly'
p6015
I7
sS'charmingly'
p6016
I4
sS'antagonist'
p6017
I1
sS'disordered'
p6018
I1
sS'grievances'
p6019
I1
sS'insensibly'
p6020
I1
sS'behindhand'
p6021
I2
sS'testifying'
p6022
I1
sS'alteration'
p6023
I2
sS'requesting'
p6024
I1
sS'sacrifices'
p6025
I2
sS'solicitous'
p6026
I4
sS'discussing'
p6027
I1
sS'insensible'
p6028
I4
sS'smallridge'
p6029
I10
sS'loveliness'
p6030
I3
sS'patriotism'
p6031
I1
sS'grammarian'
p6032
I1
sS'expediency'
p6033
I3
sS'encourager'
p6034
I1
sS'scepticism'
p6035
I1
sS'bitterness'
p6036
I1
sS'individual'
p6037
I2
sS'usefulness'
p6038
I1
sS'protecting'
p6039
I1
sS'disturbing'
p6040
I1
sS'changeable'
p6041
I1
sS'materially'
p6042
I4
sS'encouraged'
p6043
I8
sS'diffidence'
p6044
I2
sS'temptation'
p6045
I8
sS'subsequent'
p6046
I4
sS'superseded'
p6047
I2
sS'solicitude'
p6048
I13
sS'artificial'
p6049
I1
sS'complexion'
p6050
I12
sS'irresolute'
p6051
I2
sS'cautiously'
p6052
I1
sS'philippics'
p6053
I1
sS'compliment'
p6054
I31
sS'multiplied'
p6055
I2
sS'stagnation'
p6056
I1
sS'vindicated'
p6057
I1
sS'dispensing'
p6058
I1
sS'importance'
p6059
I12
sS'overrating'
p6060
I1
sS'indecision'
p6061
I1
sS'gratefully'
p6062
I5
sS'retirement'
p6063
I5
sS'opposition'
p6064
I2
sS'disservice'
p6065
I1
sS'aggrandise'
p6066
I1
sS'inimitable'
p6067
I3
sS'suppressed'
p6068
I1
sS'observable'
p6069
I1
sS'indistinct'
p6070
I1
sS'favourable'
p6071
I14
sS'attributed'
p6072
I1
sS'innocently'
p6073
I2
sS'magistrate'
p6074
I1
sS'estimation'
p6075
I3
sS'expression'
p6076
I9
sS'shamefully'
p6077
I3
sS'afterwards'
p6078
I41
sS'authorised'
p6079
I2
sS'untowardly'
p6080
I1
sS'resentment'
p6081
I9
sS'accusation'
p6082
I1
sS'directions'
p6083
I4
sS'maintained'
p6084
I4
sS'whispering'
p6085
I4
sS'throughout'
p6086
I4
sS'dissipated'
p6087
I2
sS'volubility'
p6088
I1
sS'acceptance'
p6089
I2
sS'steadiness'
p6090
I4
sS'composedly'
p6091
I2
sS'needlessly'
p6092
I1
sS'commission'
p6093
I5
sS'proprietor'
p6094
I2
sS'schoolroom'
p6095
I1
sS'felicities'
p6096
I2
sS'contribute'
p6097
I1
sS'reasonings'
p6098
I3
sS'prosperous'
p6099
I5
sS'foreseeing'
p6100
I2
sS'quantities'
p6101
I1
sS'sufficient'
p6102
I11
sS'imprudence'
p6103
I3
sS'moderation'
p6104
I2
sS'understand'
p6105
I68
sS'personally'
p6106
I1
sS'repetition'
p6107
I5
sS'apologised'
p6108
I1
sS'sweetbread'
p6109
I2
sS'appearance'
p6110
I30
sS'intimately'
p6111
I1
sS'rationally'
p6112
I2
sS'conveyance'
p6113
I1
sS'persevered'
p6114
I2
sS'unexampled'
p6115
I1
sS'stretching'
p6116
I2
sS'prevalence'
p6117
I1
sS'disapprove'
p6118
I1
sS'regularity'
p6119
I1
sS'unreserved'
p6120
I1
sS'decisively'
p6121
I1
sS'containing'
p6122
I5
sS'assurances'
p6123
I5
sS'privileges'
p6124
I1
sS'concealing'
p6125
I4
sS'indelicate'
p6126
I1
sS'brightened'
p6127
I1
sS'propensity'
p6128
I1
sS'principals'
p6129
I2
sS'privileged'
p6130
I2
sS'strawberry'
p6131
I2
sS'mortifying'
p6132
I5
sS'literature'
p6133
I1
sS'displeased'
p6134
I8
sS'contrition'
p6135
I2
sS'sullenness'
p6136
I1
sS'privations'
p6137
I4
sS'characters'
p6138
I2
sS'despatched'
p6139
I1
sS'frequently'
p6140
I8
sS'pleasantly'
p6141
I8
sS'mentioning'
p6142
I5
sS'prescribed'
p6143
I1
sS'motionless'
p6144
I1
sS'undertakes'
p6145
I2
sS'reflection'
p6146
I18
sS'immaterial'
p6147
I1
sS'sauntering'
p6148
I1
sS'impediment'
p6149
I1
sS'convenient'
p6150
I5
sS'beginnings'
p6151
I1
sS'undertaken'
p6152
I1
sS'negligence'
p6153
I1
sS'connexions'
p6154
I10
sS'scrupulous'
p6155
I4
sS'birmingham'
p6156
I2
sS'exclaiming'
p6157
I4
sS'despoiling'
p6158
I1
sS'succeeding'
p6159
I5
sS'discipline'
p6160
I2
sS'occasional'
p6161
I3
sS'spectacles'
p6162
I9
sS'gentleness'
p6163
I3
sS'infinitely'
p6164
I14
sS'petticoats'
p6165
I1
sS'attractive'
p6166
I2
sS'hereabouts'
p6167
I2
sS'recordable'
p6168
I1
sS'instrument'
p6169
I25
sS'greensward'
p6170
I1
sS'questioned'
p6171
I4
sS'impassable'
p6172
I2
sS'submissive'
p6173
I2
sS'discontent'
p6174
I1
sS'capacities'
p6175
I1
sS'conferring'
p6176
I1
sS'inflicting'
p6177
I1
sS'workbasket'
p6178
I1
sS'preference'
p6179
I12
sS'background'
p6180
I1
sS'affability'
p6181
I1
sS'inheriting'
p6182
I1
sS'coarseness'
p6183
I1
sS'acquainted'
p6184
I33
sS'heightened'
p6185
I1
sS'submission'
p6186
I3
sS'undoubting'
p6187
I1
sS'contradict'
p6188
I2
sS'incidental'
p6189
I1
sS'invaluable'
p6190
I1
sS'stationary'
p6191
I1
sS'completest'
p6192
I1
sS'apartments'
p6193
I1
sS'absolutely'
p6194
I33
sS'abundantly'
p6195
I1
sS'understood'
p6196
I23
sS'employment'
p6197
I10
sS'ungracious'
p6198
I4
sS'pronounced'
p6199
I3
sS'indefinite'
p6200
I1
sS'proceeding'
p6201
I4
sS'dimensions'
p6202
I2
sS'moralising'
p6203
I1
sS'companions'
p6204
I11
sS'discretion'
p6205
I4
sS'expressing'
p6206
I8
sS'conquering'
p6207
I1
sS'resolutely'
p6208
I6
sS'remembered'
p6209
I6
sS'gradations'
p6210
I1
sS'peculiarly'
p6211
I11
sS'continuing'
p6212
I5
sS'cherishing'
p6213
I1
sS'prohibited'
p6214
I1
sS'hospitable'
p6215
I1
sS'sandwiches'
p6216
I1
sS'handsomest'
p6217
I3
sS'christened'
p6218
I1
sS'comparison'
p6219
I11
sS'conducting'
p6220
I1
sS'friendship'
p6221
I26
sS'affectedly'
p6222
I3
sS'introduces'
p6223
I1
sS'dependence'
p6224
I11
sS'compatible'
p6225
I1
sS'flourishes'
p6226
I2
sS'sanguinely'
p6227
I1
sS'knightleys'
p6228
I7
sS'concession'
p6229
I2
sS'introduced'
p6230
I8
sS'disclosure'
p6231
I3
sS'consulting'
p6232
I4
sS'sufferable'
p6233
I1
sS'intimation'
p6234
I1
sS'previously'
p6235
I2
sS'profession'
p6236
I3
sS'engravings'
p6237
I1
sS'articulate'
p6238
I1
sS'administer'
p6239
I1
sS'formidable'
p6240
I3
sS'shortening'
p6241
I1
sS'frightened'
p6242
I12
sS'endeavours'
p6243
I1
sS'acquiesced'
p6244
I1
sS'additional'
p6245
I4
sS'qualifying'
p6246
I1
sS'constantly'
p6247
I8
sS'preferment'
p6248
I1
sS'worshipped'
p6249
I1
sS'politeness'
p6250
I7
sS'unpolished'
p6251
I1
sS'rumination'
p6252
I1
sS'unexamined'
p6253
I1
sS'confessing'
p6254
I4
sS'perplexing'
p6255
I1
sS'disengaged'
p6256
I11
sS'graciously'
p6257
I4
sS'fastidious'
p6258
I1
sS'prophecies'
p6259
I1
sS'repeatedly'
p6260
I4
sS'restraints'
p6261
I2
sS'astonished'
p6262
I8
sS'attainable'
p6263
I1
sS'downstairs'
p6264
I4
sS'ceremonies'
p6265
I1
sS'refreshing'
p6266
I2
sS'persisting'
p6267
I2
sS'detestable'
p6268
I1
sS'wretchedly'
p6269
I1
sS'pretension'
p6270
I2
sS'protesting'
p6271
I1
sS'variations'
p6272
I1
sS'triumphant'
p6273
I1
sS'gratifying'
p6274
I4
sS'generosity'
p6275
I4
sS'accustomed'
p6276
I2
sS'submitting'
p6277
I2
sS'landscapes'
p6278
I1
sS'touchstone'
p6279
I1
sS'abruptness'
p6280
I1
sS'expedition'
p6281
I1
sS'inadequate'
p6282
I2
sS'irritation'
p6283
I4
sS'horsewoman'
p6284
I1
sS'suspicions'
p6285
I13
sS'associates'
p6286
I2
sS'accounting'
p6287
I1
sS'reflecting'
p6288
I1
sS'retrospect'
p6289
I1
sS'undesigned'
p6290
I1
sS'disputable'
p6291
I1
sS'incredible'
p6292
I2
sS'sufferings'
p6293
I5
sS'neglecting'
p6294
I3
sS'forerunner'
p6295
I1
sS'preventing'
p6296
I2
sS'handsomely'
p6297
I4
sS'interested'
p6298
I15
sS'ornamented'
p6299
I1
sS'littleness'
p6300
I3
sS'condolence'
p6301
I1
sS'conclusion'
p6302
I8
sS'accidental'
p6303
I3
sS'oppression'
p6304
I1
sS'convincing'
p6305
I3
sS'partiality'
p6306
I2
sS'veneration'
p6307
I1
sS'flirtation'
p6308
I2
sS'describing'
p6309
I2
sS'restrained'
p6310
I2
sS'reproached'
p6311
I1
sS'vigorously'
p6312
I3
sS'reproaches'
p6313
I1
sS'presenting'
p6314
I2
sS'richardson'
p6315
I1
sS'underrated'
p6316
I2
sS'resolution'
p6317
I31
sa(dp6318
S'exhibitions'
p6319
I1
sS'alleviation'
p6320
I2
sS'proposition'
p6321
I3
sS'infatuation'
p6322
I2
sS'haberdasher'
p6323
I1
sS'reproaching'
p6324
I1
sS'effectually'
p6325
I3
sS'permanently'
p6326
I2
sS'discovering'
p6327
I1
sS'expeditious'
p6328
I1
sS'nervousness'
p6329
I1
sS'overpowered'
p6330
I4
sS'inspiriting'
p6331
I1
sS'indubitable'
p6332
I4
sS'rationality'
p6333
I1
sS'irksomeness'
p6334
I1
sS'recollected'
p6335
I3
sS'insuperable'
p6336
I1
sS'unsuspected'
p6337
I2
sS'convenience'
p6338
I6
sS'speculation'
p6339
I5
sS'gentlewoman'
p6340
I2
sS'distasteful'
p6341
I1
sS'surrounding'
p6342
I1
sS'affectation'
p6343
I2
sS'expressions'
p6344
I8
sS'shrubberies'
p6345
I2
sS'established'
p6346
I5
sS'confidantes'
p6347
I1
sS'worshipping'
p6348
I1
sS'contributed'
p6349
I1
sS'portionless'
p6350
I1
sS'proprieties'
p6351
I1
sS'unwholesome'
p6352
I5
sS'mischievous'
p6353
I1
sS'unfeelingly'
p6354
I1
sS'thereabouts'
p6355
I1
sS'embrocation'
p6356
I2
sS'eligibility'
p6357
I1
sS'contemplate'
p6358
I1
sS'pretensions'
p6359
I2
sS'benevolence'
p6360
I4
sS'advertising'
p6361
I1
sS'principally'
p6362
I5
sS'hospitality'
p6363
I3
sS'matrimonial'
p6364
I2
sS'excellently'
p6365
I1
sS'resolutions'
p6366
I1
sS'consumption'
p6367
I2
sS'destination'
p6368
I2
sS'predictions'
p6369
I1
sS'complaisant'
p6370
I1
sS'earnestness'
p6371
I3
sS'cultivation'
p6372
I1
sS'contentment'
p6373
I1
sS'introducing'
p6374
I5
sS'subsistence'
p6375
I1
sS'inattentive'
p6376
I1
sS'disapproved'
p6377
I1
sS'entertained'
p6378
I3
sS'forbearance'
p6379
I8
sS'spontaneous'
p6380
I1
sS'misfortunes'
p6381
I1
sS'calculation'
p6382
I1
sS'professedly'
p6383
I1
sS'proportions'
p6384
I2
sS'suggestions'
p6385
I2
sS'promptitude'
p6386
I1
sS'reproachful'
p6387
I1
sS'indifferent'
p6388
I17
sS'information'
p6389
I21
sS'awkwardness'
p6390
I5
sS'fortunately'
p6391
I4
sS'arrangement'
p6392
I17
sS'bashfulness'
p6393
I1
sS'resignation'
p6394
I1
sS'description'
p6395
I7
sS'superintend'
p6396
I1
sS'involvement'
p6397
I1
sS'endeavoured'
p6398
I4
sS'inheritance'
p6399
I1
sS'separations'
p6400
I1
sS'interrupted'
p6401
I10
sS'attestation'
p6402
I1
sS'hesitations'
p6403
I2
sS'nonsensical'
p6404
I1
sS'peculiarity'
p6405
I1
sS'impartially'
p6406
I1
sS'queernesses'
p6407
I1
sS'undervalued'
p6408
I1
sS'concurrence'
p6409
I4
sS'comfortless'
p6410
I1
sS'indignantly'
p6411
I2
sS'constituted'
p6412
I1
sS'acknowledge'
p6413
I14
sS'interesting'
p6414
I31
sS'differently'
p6415
I11
sS'descriptive'
p6416
I1
sS'invitations'
p6417
I6
sS'penetration'
p6418
I5
sS'unfeignedly'
p6419
I1
sS'maintaining'
p6420
I1
sS'desperately'
p6421
I1
sS'undertaking'
p6422
I2
sS'overcharged'
p6423
I2
sS'ingratitude'
p6424
I3
sS'accompanied'
p6425
I4
sS'intolerable'
p6426
I2
sS'adventurous'
p6427
I1
sS'attachments'
p6428
I1
sS'slightingly'
p6429
I1
sS'ejaculation'
p6430
I1
sS'disclaiming'
p6431
I1
sS'dispiriting'
p6432
I1
sS'agriculture'
p6433
I1
sS'uncouthness'
p6434
I1
sS'exclamation'
p6435
I3
sS'termination'
p6436
I1
sS'candlelight'
p6437
I2
sS'pertinacity'
p6438
I1
sS'attentively'
p6439
I3
sS'hairdresser'
p6440
I1
sS'inferiority'
p6441
I5
sS'possibility'
p6442
I13
sS'unconvinced'
p6443
I1
sS'necessarily'
p6444
I6
sS'contrivance'
p6445
I1
sS'disposition'
p6446
I24
sS'enlightened'
p6447
I1
sS'universally'
p6448
I4
sS'determining'
p6449
I1
sS'professions'
p6450
I6
sS'undesirable'
p6451
I1
sS'consequence'
p6452
I27
sS'persuasions'
p6453
I1
sS'probability'
p6454
I12
sS'occupations'
p6455
I1
sS'attractions'
p6456
I1
sS'incongruous'
p6457
I1
sS'encouraging'
p6458
I9
sS'embarrassed'
p6459
I2
sS'occurrences'
p6460
I1
sS'discomposed'
p6461
I2
sS'interchange'
p6462
I1
sS'thoughtless'
p6463
I4
sS'vouchsafing'
p6464
I1
sS'unequivocal'
p6465
I1
sS'threatening'
p6466
I2
sS'heartedness'
p6467
I1
sS'foretelling'
p6468
I1
sS'temptations'
p6469
I1
sS'compunction'
p6470
I1
sS'explanation'
p6471
I14
sS'mantelpiece'
p6472
I2
sS'undiscerned'
p6473
I1
sS'drunkenness'
p6474
I1
sS'recurrences'
p6475
I1
sS'undoubtedly'
p6476
I14
sS'unmentioned'
p6477
I1
sS'compliments'
p6478
I15
sS'instruction'
p6479
I1
sS'preparation'
p6480
I7
sS'troublesome'
p6481
I9
sS'affirmative'
p6482
I1
sS'comfortably'
p6483
I11
sS'subordinate'
p6484
I1
sS'constrained'
p6485
I1
sS'silversmith'
p6486
I1
sS'inquietudes'
p6487
I1
sS'approbation'
p6488
I23
sS'recommended'
p6489
I9
sS'transcribed'
p6490
I2
sS'sufficiency'
p6491
I1
sS'performance'
p6492
I8
sS'appellation'
p6493
I1
sS'experienced'
p6494
I1
sS'familiarise'
p6495
I1
sS'significant'
p6496
I2
sS'wretchedest'
p6497
I1
sS'engagements'
p6498
I9
sS'inexcusable'
p6499
I1
sS'reanimation'
p6500
I1
sS'understands'
p6501
I3
sS'observation'
p6502
I13
sS'overhearing'
p6503
I3
sS'astonishing'
p6504
I4
sS'proceedings'
p6505
I2
sS'reflections'
p6506
I6
sS'commissions'
p6507
I1
sS'reassembled'
p6508
I1
sS'supposition'
p6509
I1
sS'distressing'
p6510
I7
sS'pleasantest'
p6511
I3
sS'resemblance'
p6512
I5
sS'refreshment'
p6513
I2
sS'criticising'
p6514
I1
sS'incommoding'
p6515
I1
sS'meditations'
p6516
I1
sS'expectation'
p6517
I14
sS'degradation'
p6518
I4
sS'tenaciously'
p6519
I2
sS'instinctive'
p6520
I1
sS'considerate'
p6521
I3
sS'sorrowfully'
p6522
I1
sS'overflowing'
p6523
I1
sS'generations'
p6524
I2
sS'approaching'
p6525
I7
sS'consciously'
p6526
I1
sS'humiliation'
p6527
I4
sS'stipulation'
p6528
I1
sS'alternative'
p6529
I2
sS'playfulness'
p6530
I3
sS'continually'
p6531
I6
sS'grandmother'
p6532
I9
sS'unconscious'
p6533
I2
sS'inseparably'
p6534
I1
sS'countenance'
p6535
I17
sS'distinguish'
p6536
I2
sS'dexterously'
p6537
I1
sS'intelligent'
p6538
I4
sS'sacrificing'
p6539
I1
sS'uncertainty'
p6540
I5
sS'sympathiser'
p6541
I1
sS'distinction'
p6542
I10
sS'provocation'
p6543
I1
sS'gallantries'
p6544
I1
sS'reprobating'
p6545
I2
sS'magistrates'
p6546
I1
sS'apprehended'
p6547
I3
sS'flourishing'
p6548
I1
sS'considering'
p6549
I20
sS'cheerfuller'
p6550
I1
sS'quarrelling'
p6551
I3
sS'extravagant'
p6552
I1
sS'maintenance'
p6553
I2
sS'employments'
p6554
I1
sS'ostentation'
p6555
I1
sS'exceedingly'
p6556
I11
sS'confinement'
p6557
I2
sS'declaration'
p6558
I7
sS'comfortable'
p6559
I34
sS'goodnatured'
p6560
I1
sS'predicament'
p6561
I1
sS'twelvemonth'
p6562
I3
sS'handwriting'
p6563
I5
sS'discoveries'
p6564
I4
sS'remembering'
p6565
I2
sS'quarrelsome'
p6566
I1
sS'manoeuvring'
p6567
I1
sS'encountered'
p6568
I1
sS'excessively'
p6569
I12
sS'beautifully'
p6570
I3
sS'comparative'
p6571
I2
sS'punctuality'
p6572
I1
sS'unpermitted'
p6573
I1
sS'preparatory'
p6574
I4
sS'perpetually'
p6575
I2
sS'forebodings'
p6576
I1
sS'attributing'
p6577
I1
sS'unfortunate'
p6578
I7
sS'convictions'
p6579
I2
sS'composition'
p6580
I1
sS'unperceived'
p6581
I2
sS'development'
p6582
I2
sS'independent'
p6583
I9
sS'resentfully'
p6584
I1
sS'appearances'
p6585
I4
sS'solicitudes'
p6586
I1
sS'unqualified'
p6587
I1
sS'successless'
p6588
I1
sS'ceremonious'
p6589
I3
sS'anticipated'
p6590
I6
sS'opportunity'
p6591
I18
sS'transaction'
p6592
I1
sS'swisserland'
p6593
I4
sS'fashionable'
p6594
I1
sS'unconcerned'
p6595
I2
sS'accountable'
p6596
I1
sS'conversable'
p6597
I3
sS'impertinent'
p6598
I2
sS'comparisons'
p6599
I1
sS'dissentient'
p6600
I1
sS'absurdities'
p6601
I1
sS'insinuating'
p6602
I1
sS'incongruity'
p6603
I1
sS'strenuously'
p6604
I1
sS'presumption'
p6605
I7
sS'disturbance'
p6606
I2
sS'application'
p6607
I3
sS'pitifullest'
p6608
I1
sS'exclusively'
p6609
I2
sS'improvement'
p6610
I10
sS'collections'
p6611
I1
sS'artlessness'
p6612
I1
sS'memorandums'
p6613
I1
sS'indignation'
p6614
I8
sS'involuntary'
p6615
I1
sS'repetitions'
p6616
I2
sS'recantation'
p6617
I1
sS'immediately'
p6618
I70
sS'housekeeper'
p6619
I11
sS'unnecessary'
p6620
I8
sS'amiableness'
p6621
I1
sS'superiority'
p6622
I10
sS'voluntarily'
p6623
I5
sS'magnificent'
p6624
I2
sS'disinclined'
p6625
I1
sS'collectedly'
p6626
I1
sS'reprobation'
p6627
I1
sS'commonplace'
p6628
I3
sS'displeasure'
p6629
I6
sS'selfishness'
p6630
I4
sS'precautions'
p6631
I1
sS'unavoidable'
p6632
I1
sS'shakespeare'
p6633
I1
sS'adventuring'
p6634
I1
sS'unhappiness'
p6635
I2
sS'inclination'
p6636
I21
sS'limitations'
p6637
I1
sS'extenuation'
p6638
I1
sS'communicate'
p6639
I3
sS'carefulness'
p6640
I1
sS'consolation'
p6641
I10
sS'importation'
p6642
I1
sS'officiating'
p6643
I1
sS'serviceable'
p6644
I2
sS'practicable'
p6645
I3
sS'overcareful'
p6646
I1
sS'gingerbread'
p6647
I1
sS'encumbrance'
p6648
I3
sS'instruments'
p6649
I1
sS'respectably'
p6650
I1
sS'persevering'
p6651
I2
sS'accommodate'
p6652
I2
sS'respectable'
p6653
I20
sS'councillors'
p6654
I1
sS'remembrance'
p6655
I8
sS'particulars'
p6656
I13
sS'philosophic'
p6657
I2
sS'inconstancy'
p6658
I2
sS'accordingly'
p6659
I4
sS'stimulative'
p6660
I1
sS'achievement'
p6661
I1
sS'examination'
p6662
I2
sS'complacency'
p6663
I3
sS'fidgetiness'
p6664
I1
sS'continuance'
p6665
I2
sS'inducements'
p6666
I1
sS'originating'
p6667
I1
sS'penetrating'
p6668
I1
sS'impropriety'
p6669
I3
sS'unmodulated'
p6670
I1
sS'imagination'
p6671
I13
sS'ingeniously'
p6672
I1
sS'concealment'
p6673
I11
sS'grammatical'
p6674
I1
sS'conceptions'
p6675
I1
sS'conjectures'
p6676
I4
sS'transported'
p6677
I1
sS'seriousness'
p6678
I2
sS'restoration'
p6679
I1
sS'dissipation'
p6680
I1
sS'persuadable'
p6681
I2
sS'inspiration'
p6682
I1
sS'intercourse'
p6683
I12
sS'frightfully'
p6684
I1
sS'requisition'
p6685
I1
sS'sensibility'
p6686
I6
sa(dp6687
S'perseverance'
p6688
I4
sS'particularly'
p6689
I46
sS'recollection'
p6690
I8
sS'inconsistent'
p6691
I1
sS'respectfully'
p6692
I1
sS'persuasively'
p6693
I1
sS'agricultural'
p6694
I1
sS'cheerfulness'
p6695
I6
sS'anticipation'
p6696
I4
sS'suitableness'
p6697
I1
sS'extenuations'
p6698
I1
sS'heedlessness'
p6699
I1
sS'imperfection'
p6700
I2
sS'recommending'
p6701
I5
sS'considerable'
p6702
I17
sS'unsteadiness'
p6703
I2
sS'deliberately'
p6704
I2
sS'astonishment'
p6705
I6
sS'tranquillity'
p6706
I5
sS'wretchedness'
p6707
I5
sS'indifference'
p6708
I14
sS'unpardonably'
p6709
I1
sS'emphatically'
p6710
I1
sS'associations'
p6711
I1
sS'confirmation'
p6712
I3
sS'recollecting'
p6713
I3
sS'commendation'
p6714
I2
sS'transcribing'
p6715
I1
sS'disagreement'
p6716
I3
sS'listlessness'
p6717
I1
sS'supplication'
p6718
I1
sS'inexperience'
p6719
I1
sS'remonstrated'
p6720
I1
sS'overpowering'
p6721
I1
sS'unfastidious'
p6722
I1
sS'illegitimacy'
p6723
I2
sS'apprehending'
p6724
I1
sS'disappointed'
p6725
I20
sS'cautiousness'
p6726
I1
sS'conservatory'
p6727
I1
sS'contrivances'
p6728
I1
sS'contemptible'
p6729
I3
sS'accompanying'
p6730
I2
sS'confederates'
p6731
I1
sS'accidentally'
p6732
I2
sS'indisputable'
p6733
I2
sS'sufficiently'
p6734
I9
sS'multiplicity'
p6735
I1
sS'delightfully'
p6736
I8
sS'ingratiating'
p6737
I1
sS'explanations'
p6738
I3
sS'communicated'
p6739
I8
sS'unfrequently'
p6740
I1
sS'disappearing'
p6741
I1
sS'individually'
p6742
I1
sS'strengthened'
p6743
I4
sS'satisfactory'
p6744
I6
sS'irresistibly'
p6745
I1
sS'commandingly'
p6746
I1
sS'braithwaites'
p6747
I1
sS'reprehension'
p6748
I1
sS'intelligence'
p6749
I13
sS'successfully'
p6750
I2
sS'unexpectedly'
p6751
I1
sS'ungraciously'
p6752
I1
sS'illumination'
p6753
I1
sS'appreciating'
p6754
I1
sS'exaggeration'
p6755
I1
sS'irresistible'
p6756
I5
sS'congratulate'
p6757
I5
sS'acquaintance'
p6758
I63
sS'peremptorily'
p6759
I1
sS'constitution'
p6760
I7
sS'transplanted'
p6761
I1
sS'incompatible'
p6762
I1
sS'presumptuous'
p6763
I1
sS'indiscretion'
p6764
I1
sS'interference'
p6765
I8
sS'contributing'
p6766
I1
sS'consistently'
p6767
I1
sS'difficulties'
p6768
I17
sS'depreciating'
p6769
I1
sS'independence'
p6770
I11
sS'henceforward'
p6771
I2
sS'solicitously'
p6772
I1
sS'complimented'
p6773
I1
sS'impertinence'
p6774
I1
sS'circumstance'
p6775
I34
sS'undesignedly'
p6776
I1
sS'interrupting'
p6777
I1
sS'appointments'
p6778
I1
sS'complimenter'
p6779
I1
sS'fluctuations'
p6780
I1
sS'intermediate'
p6781
I1
sS'concentrated'
p6782
I1
sS'graciousness'
p6783
I2
sS'restlessness'
p6784
I3
sS'housekeeping'
p6785
I1
sS'indiscreetly'
p6786
I1
sS'friendliness'
p6787
I3
sS'complaisance'
p6788
I2
sS'quicksighted'
p6789
I1
sS'conversation'
p6790
I42
sS'accomplished'
p6791
I11
sS'remonstrance'
p6792
I2
sS'thankfulness'
p6793
I1
sS'insufficient'
p6794
I1
sS'conveniently'
p6795
I2
sS'consequently'
p6796
I4
sS'conditioning'
p6797
I1
sS'complacently'
p6798
I1
sS'unfavourable'
p6799
I2
sS'interruption'
p6800
I2
sS'fancifulness'
p6801
I1
sS'apprehensive'
p6802
I4
sS'conjecturing'
p6803
I1
sS'intellectual'
p6804
I3
sS'expectations'
p6805
I4
sS'satisfaction'
p6806
I28
sS'extravagance'
p6807
I2
sS'hyperbolical'
p6808
I1
sS'transgressed'
p6809
I1
sS'capabilities'
p6810
I2
sS'thoughtfully'
p6811
I1
sS'perturbation'
p6812
I4
sS'endeavouring'
p6813
I3
sS'introduction'
p6814
I8
sS'impartiality'
p6815
I1
sS'goodhumoured'
p6816
I1
sS'imaginations'
p6817
I2
sS'figuratively'
p6818
I1
sS'forestalling'
p6819
I1
sS'observations'
p6820
I7
sS'acquiescence'
p6821
I5
sS'inconvenient'
p6822
I3
sS'disgustingly'
p6823
I2
sS'questionable'
p6824
I1
sS'considerably'
p6825
I4
sS'conciliating'
p6826
I1
sS'unsuspicious'
p6827
I5
sS'equivocation'
p6828
I1
sS'consultation'
p6829
I1
sS'preparations'
p6830
I3
sS'instrumental'
p6831
I1
sS'strawberries'
p6832
I8
sS'corresponded'
p6833
I1
sS'alleviations'
p6834
I2
sS'representing'
p6835
I3
sS'unpardonable'
p6836
I3
sS'inclinations'
p6837
I2
sS'contemplated'
p6838
I1
sS'acquirements'
p6839
I2
sS'apprehension'
p6840
I7
sS'submissively'
p6841
I1
sS'misconstrued'
p6842
I1
sS'deficiencies'
p6843
I1
sS'carelessness'
p6844
I1
sS'contribution'
p6845
I1
sS'embarrassing'
p6846
I1
sS'remembrances'
p6847
I2
sS'affectionate'
p6848
I9
sS'speculations'
p6849
I1
sS'unpretending'
p6850
I3
sS'provocations'
p6851
I1
sS'successively'
p6852
I1
sS'arrangements'
p6853
I2
sS'palpitations'
p6854
I1
sS'anticipating'
p6855
I1
sS'perplexities'
p6856
I3
sS'mysteriously'
p6857
I1
sS'intelligible'
p6858
I12
sS'reappearance'
p6859
I1
sS'restoratives'
p6860
I1
sS'solicitation'
p6861
I1
sS'confidential'
p6862
I1
sS'dispositions'
p6863
I1
sS'administered'
p6864
I1
sS'intermission'
p6865
I1
sS'occasionally'
p6866
I5
sS'predominated'
p6867
I1
sS'hesitatingly'
p6868
I3
sS'comprehended'
p6869
I2
sS'preconceived'
p6870
I1
sS'suspiciously'
p6871
I2
sS'relinquished'
p6872
I1
sS'insufferable'
p6873
I7
sS'passionately'
p6874
I2
sS'deliberating'
p6875
I1
sS'contradicted'
p6876
I1
sS'refreshments'
p6877
I1
sS'applications'
p6878
I3
sS'conveniences'
p6879
I1
sS'unmanageable'
p6880
I2
sS'mechanically'
p6881
I1
sS'unanswerable'
p6882
I1
sS'augmentation'
p6883
I1
sS'pleasantness'
p6884
I2
sS'disagreeable'
p6885
I20
sS'appropriated'
p6886
I2
sS'advantageous'
p6887
I1
sS'consequences'
p6888
I2
sS'triumphantly'
p6889
I1
sS'performances'
p6890
I1
sS'acknowledged'
p6891
I12
sS'unreasonable'
p6892
I9
sS'accumulation'
p6893
I1
sS'protestation'
p6894
I1
sS'unreasonably'
p6895
I3
sS'construction'
p6896
I2
sS'lamentations'
p6897
I1
sS'professional'
p6898
I1
sS'entertaining'
p6899
I5
sS'contemptuous'
p6900
I1
sa(dp6901
S'improprieties'
p6902
I1
sS'consciousness'
p6903
I21
sS'reprehensible'
p6904
I1
sS'comparatively'
p6905
I2
sS'proportionate'
p6906
I1
sS'introductions'
p6907
I1
sS'argumentative'
p6908
I1
sS'satisfactions'
p6909
I1
sS'talkativeness'
p6910
I1
sS'opportunities'
p6911
I2
sS'industriously'
p6912
I2
sS'comprehending'
p6913
I3
sS'constitutions'
p6914
I1
sS'disappearance'
p6915
I3
sS'indefatigable'
p6916
I1
sS'conversations'
p6917
I1
sS'insensibility'
p6918
I2
sS'unequivocally'
p6919
I1
sS'unconsciously'
p6920
I2
sS'desirableness'
p6921
I1
sS'recollections'
p6922
I6
sS'mathematician'
p6923
I1
sS'prophetically'
p6924
I1
sS'compassionate'
p6925
I4
sS'sensibilities'
p6926
I1
sS'possibilities'
p6927
I1
sS'objectionable'
p6928
I2
sS'unsentimental'
p6929
I1
sS'impertinently'
p6930
I1
sS'significantly'
p6931
I2
sS'sentimentally'
p6932
I2
sS'contingencies'
p6933
I1
sS'inferiorities'
p6934
I1
sS'uncomfortable'
p6935
I5
sS'interruptions'
p6936
I1
sS'neighbourhood'
p6937
I15
sS'entertainment'
p6938
I6
sS'contemplating'
p6939
I1
sS'cheerlessness'
p6940
I1
sS'instantaneous'
p6941
I1
sS'conditionally'
p6942
I1
sS'ingenuousness'
p6943
I1
sS'disagreeables'
p6944
I1
sS'unexpensively'
p6945
I1
sS'disagreements'
p6946
I1
sS'disadvantages'
p6947
I1
sS'involuntarily'
p6948
I2
sS'understanding'
p6949
I28
sS'embarrassment'
p6950
I5
sS'consideration'
p6951
I24
sS'accommodation'
p6952
I6
sS'inconsiderate'
p6953
I2
sS'contemplation'
p6954
I2
sS'extraordinary'
p6955
I25
sS'contradiction'
p6956
I3
sS'improvidently'
p6957
I1
sS'complimentary'
p6958
I2
sS'wholesomeness'
p6959
I1
sS'communication'
p6960
I9
sS'condescending'
p6961
I1
sS'comprehension'
p6962
I4
sS'mortification'
p6963
I11
sS'awkwardnesses'
p6964
I1
sS'particularity'
p6965
I1
sS'disinterested'
p6966
I4
sS'prepossessing'
p6967
I1
sS'probabilities'
p6968
I2
sS'indispensable'
p6969
I3
sS'congratulated'
p6970
I2
sS'misunderstood'
p6971
I2
sS'subordination'
p6972
I1
sS'corresponding'
p6973
I1
sS'discontinuing'
p6974
I1
sS'churchwardens'
p6975
I1
sS'gentlemanlike'
p6976
I5
sS'inexpressible'
p6977
I1
sS'inexpressibly'
p6978
I2
sS'accompaniment'
p6979
I1
sS'remonstrances'
p6980
I1
sS'misconception'
p6981
I1
sS'unnecessarily'
p6982
I3
sS'circumstances'
p6983
I31
sS'companionably'
p6984
I1
sS'unfortunately'
p6985
I6
sS'indescribable'
p6986
I2
sS'interposition'
p6987
I1
sS'unwillingness'
p6988
I4
sS'unpersuadable'
p6989
I3
sS'indisposition'
p6990
I2
sS'commiseration'
p6991
I1
sS'transgression'
p6992
I1
sS'distinguished'
p6993
I3
sS'misunderstand'
p6994
I1
sS'unaccountable'
p6995
I3
sS'impossibility'
p6996
I4
sS'encouragement'
p6997
I21
sS'disappointing'
p6998
I2
sS'corroborating'
p6999
I1
sS'uninterrupted'
p7000
I1
sS'astonishingly'
p7001
I1
sS'communicative'
p7002
I3
sS'condescension'
p7003
I2
sS'agreeableness'
p7004
I2
sS'establishment'
p7005
I7
sS'acknowledging'
p7006
I5
sS'communicating'
p7007
I2
sS'inconvenience'
p7008
I10
sS'tranquillised'
p7009
I2
sS'inconsistency'
p7010
I2
sS'discordancies'
p7011
I1
sS'correspondent'
p7012
I3
sS'consternation'
p7013
I2
sS'prepossession'
p7014
I1
sS'accumulations'
p7015
I1
sS'intentionally'
p7016
I1
sS'peculiarities'
p7017
I1
sS'determination'
p7018
I5
sS'gratification'
p7019
I1
sa(dp7020
S'considerations'
p7021
I2
sS'congratulation'
p7022
I2
sS'apprehensively'
p7023
I1
sS'proportionably'
p7024
I1
sS'accommodations'
p7025
I2
sS'characteristic'
p7026
I1
sS'recommendation'
p7027
I7
sS'inconveniently'
p7028
I1
sS'reconciliation'
p7029
I3
sS'circumspection'
p7030
I1
sS'unintelligible'
p7031
I1
sS'acknowledgment'
p7032
I5
sS'discrimination'
p7033
I1
sS'inconveniences'
p7034
I1
sS'indistinctness'
p7035
I1
sS'distinguishing'
p7036
I6
sS'encouragements'
p7037
I1
sS'misconceptions'
p7038
I1
sS'understandings'
p7039
I1
sS'misinterpreted'
p7040
I2
sS'mortifications'
p7041
I1
sS'correspondence'
p7042
I2
sS'alphabetically'
p7043
I1
sS'unostentatious'
p7044
I1
sS'unquestionably'
p7045
I1
sS'congratulating'
p7046
I2
sS'inconsiderable'
p7047
I2
sS'licentiousness'
p7048
I1
sS'satisfactorily'
p7049
I2
sS'affectionately'
p7050
I1
sS'discouragement'
p7051
I2
sS'entertainingly'
p7052
I1
sS'valetudinarian'
p7053
I1
sS'congratulatory'
p7054
I2
sS'disinclination'
p7055
I2
sS'insignificance'
p7056
I1
sS'accomplishment'
p7057
I2
sS'transformation'
p7058
I1
sS'communications'
p7059
I5
sS'disapprobation'
p7060
I1
sS'disappointment'
p7061
I18
sS'gratifications'
p7062
I1
sS'representation'
p7063
I3
sS'unsuccessfully'
p7064
I1
sS'respectability'
p7065
I1
sa(dp7066
S'congratulations'
p7067
I7
sS'unexceptionable'
p7068
I7
sS'representations'
p7069
I1
sS'straightforward'
p7070
I3
sS'unobjectionable'
p7071
I1
sS'inconsideration'
p7072
I1
sS'disappointments'
p7073
I2
sS'thoughtlessness'
p7074
I1
sS'uninterruptedly'
p7075
I1
sS'transplantation'
p7076
I1
sS'inadmissibility'
p7077
I1
sS'recommendations'
p7078
I6
sS'accomplishments'
p7079
I1
sS'inconsiderately'
p7080
I1
sS'dissatisfaction'
p7081
I1
sS'unexceptionably'
p7082
I1
sS'acknowledgments'
p7083
I1
sS'procrastinating'
p7084
I1
sa(dp7085
S'disagreeableness'
p7086
I1
sS'unseasonableness'
p7087
I1
sS'misunderstanding'
p7088
I1
sS'disingenuousness'
p7089
I1
sS'undistinguishing'
p7090
I1
sS'incomprehensible'
p7091
I1
sa(dp7092
S'disinterestedness'
p7093
I1
sS'unceremoniousness'
p7094
I1
sS'misunderstandings'
p7095
I4
sS'companionableness'
p7096
I1
sa(dp7097
a(dp7098
a(dp7099
a.